
build\kernel.elf:     file format elf32-i386


Disassembly of section .text:

00100000 <_start>:
  100000:	fa                   	cli
  100001:	bc 00 00 13 00       	mov    $0x130000,%esp
  100006:	31 ed                	xor    %ebp,%ebp
  100008:	e8 c7 73 00 00       	call   1073d4 <kmain>

0010000d <halt>:
  10000d:	fa                   	cli
  10000e:	f4                   	hlt
  10000f:	eb fc                	jmp    10000d <halt>

00100011 <context_switch>:
  100011:	55                   	push   %ebp
  100012:	89 e5                	mov    %esp,%ebp
  100014:	9c                   	pushf
  100015:	50                   	push   %eax
  100016:	51                   	push   %ecx
  100017:	52                   	push   %edx
  100018:	53                   	push   %ebx
  100019:	56                   	push   %esi
  10001a:	57                   	push   %edi
  10001b:	8b 45 08             	mov    0x8(%ebp),%eax
  10001e:	89 20                	mov    %esp,(%eax)
  100020:	8b 45 0c             	mov    0xc(%ebp),%eax
  100023:	8b 20                	mov    (%eax),%esp
  100025:	5f                   	pop    %edi
  100026:	5e                   	pop    %esi
  100027:	5b                   	pop    %ebx
  100028:	5a                   	pop    %edx
  100029:	59                   	pop    %ecx
  10002a:	58                   	pop    %eax
  10002b:	9d                   	popf
  10002c:	5d                   	pop    %ebp
  10002d:	c3                   	ret

0010002e <isr0>:
  10002e:	6a 00                	push   $0x0
  100030:	6a 00                	push   $0x0
  100032:	e9 c1 00 00 00       	jmp    1000f8 <isr_common_stub>

00100037 <isr1>:
  100037:	6a 00                	push   $0x0
  100039:	6a 01                	push   $0x1
  10003b:	e9 b8 00 00 00       	jmp    1000f8 <isr_common_stub>

00100040 <isr2>:
  100040:	6a 00                	push   $0x0
  100042:	6a 02                	push   $0x2
  100044:	e9 af 00 00 00       	jmp    1000f8 <isr_common_stub>

00100049 <isr3>:
  100049:	6a 00                	push   $0x0
  10004b:	6a 03                	push   $0x3
  10004d:	e9 a6 00 00 00       	jmp    1000f8 <isr_common_stub>

00100052 <isr4>:
  100052:	6a 00                	push   $0x0
  100054:	6a 04                	push   $0x4
  100056:	e9 9d 00 00 00       	jmp    1000f8 <isr_common_stub>

0010005b <isr5>:
  10005b:	6a 00                	push   $0x0
  10005d:	6a 05                	push   $0x5
  10005f:	e9 94 00 00 00       	jmp    1000f8 <isr_common_stub>

00100064 <isr6>:
  100064:	6a 00                	push   $0x0
  100066:	6a 06                	push   $0x6
  100068:	e9 8b 00 00 00       	jmp    1000f8 <isr_common_stub>

0010006d <isr7>:
  10006d:	6a 00                	push   $0x0
  10006f:	6a 07                	push   $0x7
  100071:	e9 82 00 00 00       	jmp    1000f8 <isr_common_stub>

00100076 <isr8>:
  100076:	6a 08                	push   $0x8
  100078:	eb 7e                	jmp    1000f8 <isr_common_stub>

0010007a <isr9>:
  10007a:	6a 00                	push   $0x0
  10007c:	6a 09                	push   $0x9
  10007e:	eb 78                	jmp    1000f8 <isr_common_stub>

00100080 <isr10>:
  100080:	6a 0a                	push   $0xa
  100082:	eb 74                	jmp    1000f8 <isr_common_stub>

00100084 <isr11>:
  100084:	6a 0b                	push   $0xb
  100086:	eb 70                	jmp    1000f8 <isr_common_stub>

00100088 <isr12>:
  100088:	6a 0c                	push   $0xc
  10008a:	eb 6c                	jmp    1000f8 <isr_common_stub>

0010008c <isr13>:
  10008c:	6a 0d                	push   $0xd
  10008e:	eb 68                	jmp    1000f8 <isr_common_stub>

00100090 <isr14>:
  100090:	6a 0e                	push   $0xe
  100092:	eb 64                	jmp    1000f8 <isr_common_stub>

00100094 <isr15>:
  100094:	6a 00                	push   $0x0
  100096:	6a 0f                	push   $0xf
  100098:	eb 5e                	jmp    1000f8 <isr_common_stub>

0010009a <isr16>:
  10009a:	6a 00                	push   $0x0
  10009c:	6a 10                	push   $0x10
  10009e:	eb 58                	jmp    1000f8 <isr_common_stub>

001000a0 <isr17>:
  1000a0:	6a 11                	push   $0x11
  1000a2:	eb 54                	jmp    1000f8 <isr_common_stub>

001000a4 <isr18>:
  1000a4:	6a 00                	push   $0x0
  1000a6:	6a 12                	push   $0x12
  1000a8:	eb 4e                	jmp    1000f8 <isr_common_stub>

001000aa <isr19>:
  1000aa:	6a 00                	push   $0x0
  1000ac:	6a 13                	push   $0x13
  1000ae:	eb 48                	jmp    1000f8 <isr_common_stub>

001000b0 <isr20>:
  1000b0:	6a 00                	push   $0x0
  1000b2:	6a 14                	push   $0x14
  1000b4:	eb 42                	jmp    1000f8 <isr_common_stub>

001000b6 <isr21>:
  1000b6:	6a 00                	push   $0x0
  1000b8:	6a 15                	push   $0x15
  1000ba:	eb 3c                	jmp    1000f8 <isr_common_stub>

001000bc <isr22>:
  1000bc:	6a 00                	push   $0x0
  1000be:	6a 16                	push   $0x16
  1000c0:	eb 36                	jmp    1000f8 <isr_common_stub>

001000c2 <isr23>:
  1000c2:	6a 00                	push   $0x0
  1000c4:	6a 17                	push   $0x17
  1000c6:	eb 30                	jmp    1000f8 <isr_common_stub>

001000c8 <isr24>:
  1000c8:	6a 00                	push   $0x0
  1000ca:	6a 18                	push   $0x18
  1000cc:	eb 2a                	jmp    1000f8 <isr_common_stub>

001000ce <isr25>:
  1000ce:	6a 00                	push   $0x0
  1000d0:	6a 19                	push   $0x19
  1000d2:	eb 24                	jmp    1000f8 <isr_common_stub>

001000d4 <isr26>:
  1000d4:	6a 00                	push   $0x0
  1000d6:	6a 1a                	push   $0x1a
  1000d8:	eb 1e                	jmp    1000f8 <isr_common_stub>

001000da <isr27>:
  1000da:	6a 00                	push   $0x0
  1000dc:	6a 1b                	push   $0x1b
  1000de:	eb 18                	jmp    1000f8 <isr_common_stub>

001000e0 <isr28>:
  1000e0:	6a 00                	push   $0x0
  1000e2:	6a 1c                	push   $0x1c
  1000e4:	eb 12                	jmp    1000f8 <isr_common_stub>

001000e6 <isr29>:
  1000e6:	6a 00                	push   $0x0
  1000e8:	6a 1d                	push   $0x1d
  1000ea:	eb 0c                	jmp    1000f8 <isr_common_stub>

001000ec <isr30>:
  1000ec:	6a 00                	push   $0x0
  1000ee:	6a 1e                	push   $0x1e
  1000f0:	eb 06                	jmp    1000f8 <isr_common_stub>

001000f2 <isr31>:
  1000f2:	6a 00                	push   $0x0
  1000f4:	6a 1f                	push   $0x1f
  1000f6:	eb 00                	jmp    1000f8 <isr_common_stub>

001000f8 <isr_common_stub>:
  1000f8:	60                   	pusha
  1000f9:	1e                   	push   %ds
  1000fa:	06                   	push   %es
  1000fb:	0f a0                	push   %fs
  1000fd:	0f a8                	push   %gs
  1000ff:	66 b8 10 00          	mov    $0x10,%ax
  100103:	8e d8                	mov    %eax,%ds
  100105:	8e c0                	mov    %eax,%es
  100107:	8e e0                	mov    %eax,%fs
  100109:	8e e8                	mov    %eax,%gs
  10010b:	89 e0                	mov    %esp,%eax
  10010d:	50                   	push   %eax
  10010e:	e8 82 07 00 00       	call   100895 <isr_handler>
  100113:	83 c4 04             	add    $0x4,%esp
  100116:	0f a9                	pop    %gs
  100118:	0f a1                	pop    %fs
  10011a:	07                   	pop    %es
  10011b:	1f                   	pop    %ds
  10011c:	61                   	popa
  10011d:	83 c4 08             	add    $0x8,%esp
  100120:	cf                   	iret

00100121 <idt_flush>:
  100121:	8b 44 24 04          	mov    0x4(%esp),%eax
  100125:	0f 01 18             	lidtl  (%eax)
  100128:	c3                   	ret

00100129 <irq0>:
  100129:	6a 00                	push   $0x0
  10012b:	6a 20                	push   $0x20
  10012d:	eb 5a                	jmp    100189 <irq_common_stub>

0010012f <irq1>:
  10012f:	6a 00                	push   $0x0
  100131:	6a 21                	push   $0x21
  100133:	eb 54                	jmp    100189 <irq_common_stub>

00100135 <irq2>:
  100135:	6a 00                	push   $0x0
  100137:	6a 22                	push   $0x22
  100139:	eb 4e                	jmp    100189 <irq_common_stub>

0010013b <irq3>:
  10013b:	6a 00                	push   $0x0
  10013d:	6a 23                	push   $0x23
  10013f:	eb 48                	jmp    100189 <irq_common_stub>

00100141 <irq4>:
  100141:	6a 00                	push   $0x0
  100143:	6a 24                	push   $0x24
  100145:	eb 42                	jmp    100189 <irq_common_stub>

00100147 <irq5>:
  100147:	6a 00                	push   $0x0
  100149:	6a 25                	push   $0x25
  10014b:	eb 3c                	jmp    100189 <irq_common_stub>

0010014d <irq6>:
  10014d:	6a 00                	push   $0x0
  10014f:	6a 26                	push   $0x26
  100151:	eb 36                	jmp    100189 <irq_common_stub>

00100153 <irq7>:
  100153:	6a 00                	push   $0x0
  100155:	6a 27                	push   $0x27
  100157:	eb 30                	jmp    100189 <irq_common_stub>

00100159 <irq8>:
  100159:	6a 00                	push   $0x0
  10015b:	6a 28                	push   $0x28
  10015d:	eb 2a                	jmp    100189 <irq_common_stub>

0010015f <irq9>:
  10015f:	6a 00                	push   $0x0
  100161:	6a 29                	push   $0x29
  100163:	eb 24                	jmp    100189 <irq_common_stub>

00100165 <irq10>:
  100165:	6a 00                	push   $0x0
  100167:	6a 2a                	push   $0x2a
  100169:	eb 1e                	jmp    100189 <irq_common_stub>

0010016b <irq11>:
  10016b:	6a 00                	push   $0x0
  10016d:	6a 2b                	push   $0x2b
  10016f:	eb 18                	jmp    100189 <irq_common_stub>

00100171 <irq12>:
  100171:	6a 00                	push   $0x0
  100173:	6a 2c                	push   $0x2c
  100175:	eb 12                	jmp    100189 <irq_common_stub>

00100177 <irq13>:
  100177:	6a 00                	push   $0x0
  100179:	6a 2d                	push   $0x2d
  10017b:	eb 0c                	jmp    100189 <irq_common_stub>

0010017d <irq14>:
  10017d:	6a 00                	push   $0x0
  10017f:	6a 2e                	push   $0x2e
  100181:	eb 06                	jmp    100189 <irq_common_stub>

00100183 <irq15>:
  100183:	6a 00                	push   $0x0
  100185:	6a 2f                	push   $0x2f
  100187:	eb 00                	jmp    100189 <irq_common_stub>

00100189 <irq_common_stub>:
  100189:	1e                   	push   %ds
  10018a:	06                   	push   %es
  10018b:	0f a0                	push   %fs
  10018d:	0f a8                	push   %gs
  10018f:	60                   	pusha
  100190:	66 b8 10 00          	mov    $0x10,%ax
  100194:	8e d8                	mov    %eax,%ds
  100196:	8e c0                	mov    %eax,%es
  100198:	8e e0                	mov    %eax,%fs
  10019a:	8e e8                	mov    %eax,%gs
  10019c:	89 e0                	mov    %esp,%eax
  10019e:	50                   	push   %eax
  10019f:	e8 3a 08 00 00       	call   1009de <irq_handler>
  1001a4:	83 c4 04             	add    $0x4,%esp
  1001a7:	61                   	popa
  1001a8:	0f a9                	pop    %gs
  1001aa:	0f a1                	pop    %fs
  1001ac:	07                   	pop    %es
  1001ad:	1f                   	pop    %ds
  1001ae:	83 c4 08             	add    $0x8,%esp
  1001b1:	cf                   	iret

001001b2 <isr128>:
  1001b2:	6a 00                	push   $0x0
  1001b4:	68 80 00 00 00       	push   $0x80
  1001b9:	60                   	pusha
  1001ba:	1e                   	push   %ds
  1001bb:	06                   	push   %es
  1001bc:	0f a0                	push   %fs
  1001be:	0f a8                	push   %gs
  1001c0:	66 b8 10 00          	mov    $0x10,%ax
  1001c4:	8e d8                	mov    %eax,%ds
  1001c6:	8e c0                	mov    %eax,%es
  1001c8:	8e e0                	mov    %eax,%fs
  1001ca:	8e e8                	mov    %eax,%gs
  1001cc:	89 e0                	mov    %esp,%eax
  1001ce:	50                   	push   %eax
  1001cf:	e8 de 6a 00 00       	call   106cb2 <syscall_handler>
  1001d4:	83 c4 04             	add    $0x4,%esp
  1001d7:	0f a9                	pop    %gs
  1001d9:	0f a1                	pop    %fs
  1001db:	07                   	pop    %es
  1001dc:	1f                   	pop    %ds
  1001dd:	61                   	popa
  1001de:	83 c4 08             	add    $0x8,%esp
  1001e1:	cf                   	iret

001001e2 <idt_set_gate>:
  1001e2:	55                   	push   %ebp
  1001e3:	89 e5                	mov    %esp,%ebp
  1001e5:	83 ec 0c             	sub    $0xc,%esp
  1001e8:	8b 4d 08             	mov    0x8(%ebp),%ecx
  1001eb:	8b 55 10             	mov    0x10(%ebp),%edx
  1001ee:	8b 45 14             	mov    0x14(%ebp),%eax
  1001f1:	88 4d fc             	mov    %cl,-0x4(%ebp)
  1001f4:	66 89 55 f8          	mov    %dx,-0x8(%ebp)
  1001f8:	88 45 f4             	mov    %al,-0xc(%ebp)
  1001fb:	0f b6 45 fc          	movzbl -0x4(%ebp),%eax
  1001ff:	8b 55 0c             	mov    0xc(%ebp),%edx
  100202:	66 89 14 c5 00 00 13 	mov    %dx,0x130000(,%eax,8)
  100209:	00 
  10020a:	0f b6 45 fc          	movzbl -0x4(%ebp),%eax
  10020e:	0f b7 55 f8          	movzwl -0x8(%ebp),%edx
  100212:	66 89 14 c5 02 00 13 	mov    %dx,0x130002(,%eax,8)
  100219:	00 
  10021a:	0f b6 45 fc          	movzbl -0x4(%ebp),%eax
  10021e:	c6 04 c5 04 00 13 00 	movb   $0x0,0x130004(,%eax,8)
  100225:	00 
  100226:	0f b6 45 fc          	movzbl -0x4(%ebp),%eax
  10022a:	0f b6 55 f4          	movzbl -0xc(%ebp),%edx
  10022e:	88 14 c5 05 00 13 00 	mov    %dl,0x130005(,%eax,8)
  100235:	8b 45 0c             	mov    0xc(%ebp),%eax
  100238:	c1 e8 10             	shr    $0x10,%eax
  10023b:	89 c2                	mov    %eax,%edx
  10023d:	0f b6 45 fc          	movzbl -0x4(%ebp),%eax
  100241:	66 89 14 c5 06 00 13 	mov    %dx,0x130006(,%eax,8)
  100248:	00 
  100249:	90                   	nop
  10024a:	c9                   	leave
  10024b:	c3                   	ret

0010024c <idt_clear>:
  10024c:	55                   	push   %ebp
  10024d:	89 e5                	mov    %esp,%ebp
  10024f:	83 ec 10             	sub    $0x10,%esp
  100252:	c7 45 fc 00 00 00 00 	movl   $0x0,-0x4(%ebp)
  100259:	eb 41                	jmp    10029c <idt_clear+0x50>
  10025b:	8b 45 fc             	mov    -0x4(%ebp),%eax
  10025e:	66 c7 04 c5 00 00 13 	movw   $0x0,0x130000(,%eax,8)
  100265:	00 00 00 
  100268:	8b 45 fc             	mov    -0x4(%ebp),%eax
  10026b:	66 c7 04 c5 02 00 13 	movw   $0x0,0x130002(,%eax,8)
  100272:	00 00 00 
  100275:	8b 45 fc             	mov    -0x4(%ebp),%eax
  100278:	c6 04 c5 04 00 13 00 	movb   $0x0,0x130004(,%eax,8)
  10027f:	00 
  100280:	8b 45 fc             	mov    -0x4(%ebp),%eax
  100283:	c6 04 c5 05 00 13 00 	movb   $0x0,0x130005(,%eax,8)
  10028a:	00 
  10028b:	8b 45 fc             	mov    -0x4(%ebp),%eax
  10028e:	66 c7 04 c5 06 00 13 	movw   $0x0,0x130006(,%eax,8)
  100295:	00 00 00 
  100298:	83 45 fc 01          	addl   $0x1,-0x4(%ebp)
  10029c:	81 7d fc ff 00 00 00 	cmpl   $0xff,-0x4(%ebp)
  1002a3:	76 b6                	jbe    10025b <idt_clear+0xf>
  1002a5:	90                   	nop
  1002a6:	90                   	nop
  1002a7:	c9                   	leave
  1002a8:	c3                   	ret

001002a9 <idt_init>:
  1002a9:	55                   	push   %ebp
  1002aa:	89 e5                	mov    %esp,%ebp
  1002ac:	83 ec 18             	sub    $0x18,%esp
  1002af:	e8 98 ff ff ff       	call   10024c <idt_clear>
  1002b4:	66 c7 05 00 08 13 00 	movw   $0x7ff,0x130800
  1002bb:	ff 07 
  1002bd:	b8 00 00 13 00       	mov    $0x130000,%eax
  1002c2:	a3 02 08 13 00       	mov    %eax,0x130802
  1002c7:	b8 2e 00 10 00       	mov    $0x10002e,%eax
  1002cc:	68 8e 00 00 00       	push   $0x8e
  1002d1:	6a 08                	push   $0x8
  1002d3:	50                   	push   %eax
  1002d4:	6a 00                	push   $0x0
  1002d6:	e8 07 ff ff ff       	call   1001e2 <idt_set_gate>
  1002db:	83 c4 10             	add    $0x10,%esp
  1002de:	b8 37 00 10 00       	mov    $0x100037,%eax
  1002e3:	68 8e 00 00 00       	push   $0x8e
  1002e8:	6a 08                	push   $0x8
  1002ea:	50                   	push   %eax
  1002eb:	6a 01                	push   $0x1
  1002ed:	e8 f0 fe ff ff       	call   1001e2 <idt_set_gate>
  1002f2:	83 c4 10             	add    $0x10,%esp
  1002f5:	b8 40 00 10 00       	mov    $0x100040,%eax
  1002fa:	68 8e 00 00 00       	push   $0x8e
  1002ff:	6a 08                	push   $0x8
  100301:	50                   	push   %eax
  100302:	6a 02                	push   $0x2
  100304:	e8 d9 fe ff ff       	call   1001e2 <idt_set_gate>
  100309:	83 c4 10             	add    $0x10,%esp
  10030c:	b8 49 00 10 00       	mov    $0x100049,%eax
  100311:	68 8e 00 00 00       	push   $0x8e
  100316:	6a 08                	push   $0x8
  100318:	50                   	push   %eax
  100319:	6a 03                	push   $0x3
  10031b:	e8 c2 fe ff ff       	call   1001e2 <idt_set_gate>
  100320:	83 c4 10             	add    $0x10,%esp
  100323:	b8 52 00 10 00       	mov    $0x100052,%eax
  100328:	68 8e 00 00 00       	push   $0x8e
  10032d:	6a 08                	push   $0x8
  10032f:	50                   	push   %eax
  100330:	6a 04                	push   $0x4
  100332:	e8 ab fe ff ff       	call   1001e2 <idt_set_gate>
  100337:	83 c4 10             	add    $0x10,%esp
  10033a:	b8 5b 00 10 00       	mov    $0x10005b,%eax
  10033f:	68 8e 00 00 00       	push   $0x8e
  100344:	6a 08                	push   $0x8
  100346:	50                   	push   %eax
  100347:	6a 05                	push   $0x5
  100349:	e8 94 fe ff ff       	call   1001e2 <idt_set_gate>
  10034e:	83 c4 10             	add    $0x10,%esp
  100351:	b8 64 00 10 00       	mov    $0x100064,%eax
  100356:	68 8e 00 00 00       	push   $0x8e
  10035b:	6a 08                	push   $0x8
  10035d:	50                   	push   %eax
  10035e:	6a 06                	push   $0x6
  100360:	e8 7d fe ff ff       	call   1001e2 <idt_set_gate>
  100365:	83 c4 10             	add    $0x10,%esp
  100368:	b8 6d 00 10 00       	mov    $0x10006d,%eax
  10036d:	68 8e 00 00 00       	push   $0x8e
  100372:	6a 08                	push   $0x8
  100374:	50                   	push   %eax
  100375:	6a 07                	push   $0x7
  100377:	e8 66 fe ff ff       	call   1001e2 <idt_set_gate>
  10037c:	83 c4 10             	add    $0x10,%esp
  10037f:	b8 76 00 10 00       	mov    $0x100076,%eax
  100384:	68 8e 00 00 00       	push   $0x8e
  100389:	6a 08                	push   $0x8
  10038b:	50                   	push   %eax
  10038c:	6a 08                	push   $0x8
  10038e:	e8 4f fe ff ff       	call   1001e2 <idt_set_gate>
  100393:	83 c4 10             	add    $0x10,%esp
  100396:	b8 7a 00 10 00       	mov    $0x10007a,%eax
  10039b:	68 8e 00 00 00       	push   $0x8e
  1003a0:	6a 08                	push   $0x8
  1003a2:	50                   	push   %eax
  1003a3:	6a 09                	push   $0x9
  1003a5:	e8 38 fe ff ff       	call   1001e2 <idt_set_gate>
  1003aa:	83 c4 10             	add    $0x10,%esp
  1003ad:	b8 80 00 10 00       	mov    $0x100080,%eax
  1003b2:	68 8e 00 00 00       	push   $0x8e
  1003b7:	6a 08                	push   $0x8
  1003b9:	50                   	push   %eax
  1003ba:	6a 0a                	push   $0xa
  1003bc:	e8 21 fe ff ff       	call   1001e2 <idt_set_gate>
  1003c1:	83 c4 10             	add    $0x10,%esp
  1003c4:	b8 84 00 10 00       	mov    $0x100084,%eax
  1003c9:	68 8e 00 00 00       	push   $0x8e
  1003ce:	6a 08                	push   $0x8
  1003d0:	50                   	push   %eax
  1003d1:	6a 0b                	push   $0xb
  1003d3:	e8 0a fe ff ff       	call   1001e2 <idt_set_gate>
  1003d8:	83 c4 10             	add    $0x10,%esp
  1003db:	b8 88 00 10 00       	mov    $0x100088,%eax
  1003e0:	68 8e 00 00 00       	push   $0x8e
  1003e5:	6a 08                	push   $0x8
  1003e7:	50                   	push   %eax
  1003e8:	6a 0c                	push   $0xc
  1003ea:	e8 f3 fd ff ff       	call   1001e2 <idt_set_gate>
  1003ef:	83 c4 10             	add    $0x10,%esp
  1003f2:	b8 8c 00 10 00       	mov    $0x10008c,%eax
  1003f7:	68 8e 00 00 00       	push   $0x8e
  1003fc:	6a 08                	push   $0x8
  1003fe:	50                   	push   %eax
  1003ff:	6a 0d                	push   $0xd
  100401:	e8 dc fd ff ff       	call   1001e2 <idt_set_gate>
  100406:	83 c4 10             	add    $0x10,%esp
  100409:	b8 90 00 10 00       	mov    $0x100090,%eax
  10040e:	68 8e 00 00 00       	push   $0x8e
  100413:	6a 08                	push   $0x8
  100415:	50                   	push   %eax
  100416:	6a 0e                	push   $0xe
  100418:	e8 c5 fd ff ff       	call   1001e2 <idt_set_gate>
  10041d:	83 c4 10             	add    $0x10,%esp
  100420:	b8 94 00 10 00       	mov    $0x100094,%eax
  100425:	68 8e 00 00 00       	push   $0x8e
  10042a:	6a 08                	push   $0x8
  10042c:	50                   	push   %eax
  10042d:	6a 0f                	push   $0xf
  10042f:	e8 ae fd ff ff       	call   1001e2 <idt_set_gate>
  100434:	83 c4 10             	add    $0x10,%esp
  100437:	b8 9a 00 10 00       	mov    $0x10009a,%eax
  10043c:	68 8e 00 00 00       	push   $0x8e
  100441:	6a 08                	push   $0x8
  100443:	50                   	push   %eax
  100444:	6a 10                	push   $0x10
  100446:	e8 97 fd ff ff       	call   1001e2 <idt_set_gate>
  10044b:	83 c4 10             	add    $0x10,%esp
  10044e:	b8 a0 00 10 00       	mov    $0x1000a0,%eax
  100453:	68 8e 00 00 00       	push   $0x8e
  100458:	6a 08                	push   $0x8
  10045a:	50                   	push   %eax
  10045b:	6a 11                	push   $0x11
  10045d:	e8 80 fd ff ff       	call   1001e2 <idt_set_gate>
  100462:	83 c4 10             	add    $0x10,%esp
  100465:	b8 a4 00 10 00       	mov    $0x1000a4,%eax
  10046a:	68 8e 00 00 00       	push   $0x8e
  10046f:	6a 08                	push   $0x8
  100471:	50                   	push   %eax
  100472:	6a 12                	push   $0x12
  100474:	e8 69 fd ff ff       	call   1001e2 <idt_set_gate>
  100479:	83 c4 10             	add    $0x10,%esp
  10047c:	b8 aa 00 10 00       	mov    $0x1000aa,%eax
  100481:	68 8e 00 00 00       	push   $0x8e
  100486:	6a 08                	push   $0x8
  100488:	50                   	push   %eax
  100489:	6a 13                	push   $0x13
  10048b:	e8 52 fd ff ff       	call   1001e2 <idt_set_gate>
  100490:	83 c4 10             	add    $0x10,%esp
  100493:	b8 b0 00 10 00       	mov    $0x1000b0,%eax
  100498:	68 8e 00 00 00       	push   $0x8e
  10049d:	6a 08                	push   $0x8
  10049f:	50                   	push   %eax
  1004a0:	6a 14                	push   $0x14
  1004a2:	e8 3b fd ff ff       	call   1001e2 <idt_set_gate>
  1004a7:	83 c4 10             	add    $0x10,%esp
  1004aa:	b8 b6 00 10 00       	mov    $0x1000b6,%eax
  1004af:	68 8e 00 00 00       	push   $0x8e
  1004b4:	6a 08                	push   $0x8
  1004b6:	50                   	push   %eax
  1004b7:	6a 15                	push   $0x15
  1004b9:	e8 24 fd ff ff       	call   1001e2 <idt_set_gate>
  1004be:	83 c4 10             	add    $0x10,%esp
  1004c1:	b8 bc 00 10 00       	mov    $0x1000bc,%eax
  1004c6:	68 8e 00 00 00       	push   $0x8e
  1004cb:	6a 08                	push   $0x8
  1004cd:	50                   	push   %eax
  1004ce:	6a 16                	push   $0x16
  1004d0:	e8 0d fd ff ff       	call   1001e2 <idt_set_gate>
  1004d5:	83 c4 10             	add    $0x10,%esp
  1004d8:	b8 c2 00 10 00       	mov    $0x1000c2,%eax
  1004dd:	68 8e 00 00 00       	push   $0x8e
  1004e2:	6a 08                	push   $0x8
  1004e4:	50                   	push   %eax
  1004e5:	6a 17                	push   $0x17
  1004e7:	e8 f6 fc ff ff       	call   1001e2 <idt_set_gate>
  1004ec:	83 c4 10             	add    $0x10,%esp
  1004ef:	b8 c8 00 10 00       	mov    $0x1000c8,%eax
  1004f4:	68 8e 00 00 00       	push   $0x8e
  1004f9:	6a 08                	push   $0x8
  1004fb:	50                   	push   %eax
  1004fc:	6a 18                	push   $0x18
  1004fe:	e8 df fc ff ff       	call   1001e2 <idt_set_gate>
  100503:	83 c4 10             	add    $0x10,%esp
  100506:	b8 ce 00 10 00       	mov    $0x1000ce,%eax
  10050b:	68 8e 00 00 00       	push   $0x8e
  100510:	6a 08                	push   $0x8
  100512:	50                   	push   %eax
  100513:	6a 19                	push   $0x19
  100515:	e8 c8 fc ff ff       	call   1001e2 <idt_set_gate>
  10051a:	83 c4 10             	add    $0x10,%esp
  10051d:	b8 d4 00 10 00       	mov    $0x1000d4,%eax
  100522:	68 8e 00 00 00       	push   $0x8e
  100527:	6a 08                	push   $0x8
  100529:	50                   	push   %eax
  10052a:	6a 1a                	push   $0x1a
  10052c:	e8 b1 fc ff ff       	call   1001e2 <idt_set_gate>
  100531:	83 c4 10             	add    $0x10,%esp
  100534:	b8 da 00 10 00       	mov    $0x1000da,%eax
  100539:	68 8e 00 00 00       	push   $0x8e
  10053e:	6a 08                	push   $0x8
  100540:	50                   	push   %eax
  100541:	6a 1b                	push   $0x1b
  100543:	e8 9a fc ff ff       	call   1001e2 <idt_set_gate>
  100548:	83 c4 10             	add    $0x10,%esp
  10054b:	b8 e0 00 10 00       	mov    $0x1000e0,%eax
  100550:	68 8e 00 00 00       	push   $0x8e
  100555:	6a 08                	push   $0x8
  100557:	50                   	push   %eax
  100558:	6a 1c                	push   $0x1c
  10055a:	e8 83 fc ff ff       	call   1001e2 <idt_set_gate>
  10055f:	83 c4 10             	add    $0x10,%esp
  100562:	b8 e6 00 10 00       	mov    $0x1000e6,%eax
  100567:	68 8e 00 00 00       	push   $0x8e
  10056c:	6a 08                	push   $0x8
  10056e:	50                   	push   %eax
  10056f:	6a 1d                	push   $0x1d
  100571:	e8 6c fc ff ff       	call   1001e2 <idt_set_gate>
  100576:	83 c4 10             	add    $0x10,%esp
  100579:	b8 ec 00 10 00       	mov    $0x1000ec,%eax
  10057e:	68 8e 00 00 00       	push   $0x8e
  100583:	6a 08                	push   $0x8
  100585:	50                   	push   %eax
  100586:	6a 1e                	push   $0x1e
  100588:	e8 55 fc ff ff       	call   1001e2 <idt_set_gate>
  10058d:	83 c4 10             	add    $0x10,%esp
  100590:	b8 f2 00 10 00       	mov    $0x1000f2,%eax
  100595:	68 8e 00 00 00       	push   $0x8e
  10059a:	6a 08                	push   $0x8
  10059c:	50                   	push   %eax
  10059d:	6a 1f                	push   $0x1f
  10059f:	e8 3e fc ff ff       	call   1001e2 <idt_set_gate>
  1005a4:	83 c4 10             	add    $0x10,%esp
  1005a7:	b8 29 01 10 00       	mov    $0x100129,%eax
  1005ac:	68 8e 00 00 00       	push   $0x8e
  1005b1:	6a 08                	push   $0x8
  1005b3:	50                   	push   %eax
  1005b4:	6a 20                	push   $0x20
  1005b6:	e8 27 fc ff ff       	call   1001e2 <idt_set_gate>
  1005bb:	83 c4 10             	add    $0x10,%esp
  1005be:	b8 2f 01 10 00       	mov    $0x10012f,%eax
  1005c3:	68 8e 00 00 00       	push   $0x8e
  1005c8:	6a 08                	push   $0x8
  1005ca:	50                   	push   %eax
  1005cb:	6a 21                	push   $0x21
  1005cd:	e8 10 fc ff ff       	call   1001e2 <idt_set_gate>
  1005d2:	83 c4 10             	add    $0x10,%esp
  1005d5:	b8 35 01 10 00       	mov    $0x100135,%eax
  1005da:	68 8e 00 00 00       	push   $0x8e
  1005df:	6a 08                	push   $0x8
  1005e1:	50                   	push   %eax
  1005e2:	6a 22                	push   $0x22
  1005e4:	e8 f9 fb ff ff       	call   1001e2 <idt_set_gate>
  1005e9:	83 c4 10             	add    $0x10,%esp
  1005ec:	b8 3b 01 10 00       	mov    $0x10013b,%eax
  1005f1:	68 8e 00 00 00       	push   $0x8e
  1005f6:	6a 08                	push   $0x8
  1005f8:	50                   	push   %eax
  1005f9:	6a 23                	push   $0x23
  1005fb:	e8 e2 fb ff ff       	call   1001e2 <idt_set_gate>
  100600:	83 c4 10             	add    $0x10,%esp
  100603:	b8 41 01 10 00       	mov    $0x100141,%eax
  100608:	68 8e 00 00 00       	push   $0x8e
  10060d:	6a 08                	push   $0x8
  10060f:	50                   	push   %eax
  100610:	6a 24                	push   $0x24
  100612:	e8 cb fb ff ff       	call   1001e2 <idt_set_gate>
  100617:	83 c4 10             	add    $0x10,%esp
  10061a:	b8 47 01 10 00       	mov    $0x100147,%eax
  10061f:	68 8e 00 00 00       	push   $0x8e
  100624:	6a 08                	push   $0x8
  100626:	50                   	push   %eax
  100627:	6a 25                	push   $0x25
  100629:	e8 b4 fb ff ff       	call   1001e2 <idt_set_gate>
  10062e:	83 c4 10             	add    $0x10,%esp
  100631:	b8 4d 01 10 00       	mov    $0x10014d,%eax
  100636:	68 8e 00 00 00       	push   $0x8e
  10063b:	6a 08                	push   $0x8
  10063d:	50                   	push   %eax
  10063e:	6a 26                	push   $0x26
  100640:	e8 9d fb ff ff       	call   1001e2 <idt_set_gate>
  100645:	83 c4 10             	add    $0x10,%esp
  100648:	b8 53 01 10 00       	mov    $0x100153,%eax
  10064d:	68 8e 00 00 00       	push   $0x8e
  100652:	6a 08                	push   $0x8
  100654:	50                   	push   %eax
  100655:	6a 27                	push   $0x27
  100657:	e8 86 fb ff ff       	call   1001e2 <idt_set_gate>
  10065c:	83 c4 10             	add    $0x10,%esp
  10065f:	b8 59 01 10 00       	mov    $0x100159,%eax
  100664:	68 8e 00 00 00       	push   $0x8e
  100669:	6a 08                	push   $0x8
  10066b:	50                   	push   %eax
  10066c:	6a 28                	push   $0x28
  10066e:	e8 6f fb ff ff       	call   1001e2 <idt_set_gate>
  100673:	83 c4 10             	add    $0x10,%esp
  100676:	b8 5f 01 10 00       	mov    $0x10015f,%eax
  10067b:	68 8e 00 00 00       	push   $0x8e
  100680:	6a 08                	push   $0x8
  100682:	50                   	push   %eax
  100683:	6a 29                	push   $0x29
  100685:	e8 58 fb ff ff       	call   1001e2 <idt_set_gate>
  10068a:	83 c4 10             	add    $0x10,%esp
  10068d:	b8 65 01 10 00       	mov    $0x100165,%eax
  100692:	68 8e 00 00 00       	push   $0x8e
  100697:	6a 08                	push   $0x8
  100699:	50                   	push   %eax
  10069a:	6a 2a                	push   $0x2a
  10069c:	e8 41 fb ff ff       	call   1001e2 <idt_set_gate>
  1006a1:	83 c4 10             	add    $0x10,%esp
  1006a4:	b8 6b 01 10 00       	mov    $0x10016b,%eax
  1006a9:	68 8e 00 00 00       	push   $0x8e
  1006ae:	6a 08                	push   $0x8
  1006b0:	50                   	push   %eax
  1006b1:	6a 2b                	push   $0x2b
  1006b3:	e8 2a fb ff ff       	call   1001e2 <idt_set_gate>
  1006b8:	83 c4 10             	add    $0x10,%esp
  1006bb:	b8 71 01 10 00       	mov    $0x100171,%eax
  1006c0:	68 8e 00 00 00       	push   $0x8e
  1006c5:	6a 08                	push   $0x8
  1006c7:	50                   	push   %eax
  1006c8:	6a 2c                	push   $0x2c
  1006ca:	e8 13 fb ff ff       	call   1001e2 <idt_set_gate>
  1006cf:	83 c4 10             	add    $0x10,%esp
  1006d2:	b8 77 01 10 00       	mov    $0x100177,%eax
  1006d7:	68 8e 00 00 00       	push   $0x8e
  1006dc:	6a 08                	push   $0x8
  1006de:	50                   	push   %eax
  1006df:	6a 2d                	push   $0x2d
  1006e1:	e8 fc fa ff ff       	call   1001e2 <idt_set_gate>
  1006e6:	83 c4 10             	add    $0x10,%esp
  1006e9:	b8 7d 01 10 00       	mov    $0x10017d,%eax
  1006ee:	68 8e 00 00 00       	push   $0x8e
  1006f3:	6a 08                	push   $0x8
  1006f5:	50                   	push   %eax
  1006f6:	6a 2e                	push   $0x2e
  1006f8:	e8 e5 fa ff ff       	call   1001e2 <idt_set_gate>
  1006fd:	83 c4 10             	add    $0x10,%esp
  100700:	b8 83 01 10 00       	mov    $0x100183,%eax
  100705:	68 8e 00 00 00       	push   $0x8e
  10070a:	6a 08                	push   $0x8
  10070c:	50                   	push   %eax
  10070d:	6a 2f                	push   $0x2f
  10070f:	e8 ce fa ff ff       	call   1001e2 <idt_set_gate>
  100714:	83 c4 10             	add    $0x10,%esp
  100717:	b8 b2 01 10 00       	mov    $0x1001b2,%eax
  10071c:	68 ee 00 00 00       	push   $0xee
  100721:	6a 08                	push   $0x8
  100723:	50                   	push   %eax
  100724:	68 80 00 00 00       	push   $0x80
  100729:	e8 b4 fa ff ff       	call   1001e2 <idt_set_gate>
  10072e:	83 c4 10             	add    $0x10,%esp
  100731:	c7 45 f4 00 00 00 00 	movl   $0x0,-0xc(%ebp)
  100738:	eb 12                	jmp    10074c <idt_init+0x4a3>
  10073a:	8b 45 f4             	mov    -0xc(%ebp),%eax
  10073d:	c7 04 85 20 08 13 00 	movl   $0x0,0x130820(,%eax,4)
  100744:	00 00 00 00 
  100748:	83 45 f4 01          	addl   $0x1,-0xc(%ebp)
  10074c:	83 7d f4 1f          	cmpl   $0x1f,-0xc(%ebp)
  100750:	76 e8                	jbe    10073a <idt_init+0x491>
  100752:	83 ec 0c             	sub    $0xc,%esp
  100755:	68 e0 0b 13 00       	push   $0x130be0
  10075a:	e8 a7 ae 01 00       	call   11b606 <spinlock_init>
  10075f:	83 c4 10             	add    $0x10,%esp
  100762:	c7 45 f0 00 00 00 00 	movl   $0x0,-0x10(%ebp)
  100769:	e9 8e 00 00 00       	jmp    1007fc <idt_init+0x553>
  10076e:	8b 45 f0             	mov    -0x10(%ebp),%eax
  100771:	6b c0 34             	imul   $0x34,%eax,%eax
  100774:	05 a0 08 13 00       	add    $0x1308a0,%eax
  100779:	c7 00 00 00 00 00    	movl   $0x0,(%eax)
  10077f:	c7 45 ec 00 00 00 00 	movl   $0x0,-0x14(%ebp)
  100786:	eb 36                	jmp    1007be <idt_init+0x515>
  100788:	8b 55 ec             	mov    -0x14(%ebp),%edx
  10078b:	8b 45 f0             	mov    -0x10(%ebp),%eax
  10078e:	c1 e2 03             	shl    $0x3,%edx
  100791:	6b c0 34             	imul   $0x34,%eax,%eax
  100794:	01 d0                	add    %edx,%eax
  100796:	05 a4 08 13 00       	add    $0x1308a4,%eax
  10079b:	c7 00 00 00 00 00    	movl   $0x0,(%eax)
  1007a1:	8b 55 ec             	mov    -0x14(%ebp),%edx
  1007a4:	8b 45 f0             	mov    -0x10(%ebp),%eax
  1007a7:	c1 e2 03             	shl    $0x3,%edx
  1007aa:	6b c0 34             	imul   $0x34,%eax,%eax
  1007ad:	01 d0                	add    %edx,%eax
  1007af:	05 a8 08 13 00       	add    $0x1308a8,%eax
  1007b4:	c7 00 00 00 00 00    	movl   $0x0,(%eax)
  1007ba:	83 45 ec 01          	addl   $0x1,-0x14(%ebp)
  1007be:	83 7d ec 03          	cmpl   $0x3,-0x14(%ebp)
  1007c2:	76 c4                	jbe    100788 <idt_init+0x4df>
  1007c4:	c7 45 e8 00 00 00 00 	movl   $0x0,-0x18(%ebp)
  1007cb:	eb 25                	jmp    1007f2 <idt_init+0x549>
  1007cd:	8b 55 f0             	mov    -0x10(%ebp),%edx
  1007d0:	89 d0                	mov    %edx,%eax
  1007d2:	01 c0                	add    %eax,%eax
  1007d4:	01 d0                	add    %edx,%eax
  1007d6:	c1 e0 02             	shl    $0x2,%eax
  1007d9:	01 d0                	add    %edx,%eax
  1007db:	8b 55 e8             	mov    -0x18(%ebp),%edx
  1007de:	01 d0                	add    %edx,%eax
  1007e0:	83 c0 08             	add    $0x8,%eax
  1007e3:	c7 04 85 a4 08 13 00 	movl   $0x0,0x1308a4(,%eax,4)
  1007ea:	00 00 00 00 
  1007ee:	83 45 e8 01          	addl   $0x1,-0x18(%ebp)
  1007f2:	83 7d e8 03          	cmpl   $0x3,-0x18(%ebp)
  1007f6:	76 d5                	jbe    1007cd <idt_init+0x524>
  1007f8:	83 45 f0 01          	addl   $0x1,-0x10(%ebp)
  1007fc:	83 7d f0 0f          	cmpl   $0xf,-0x10(%ebp)
  100800:	0f 86 68 ff ff ff    	jbe    10076e <idt_init+0x4c5>
  100806:	b8 00 08 13 00       	mov    $0x130800,%eax
  10080b:	83 ec 0c             	sub    $0xc,%esp
  10080e:	50                   	push   %eax
  10080f:	e8 0d f9 ff ff       	call   100121 <idt_flush>
  100814:	83 c4 10             	add    $0x10,%esp
  100817:	90                   	nop
  100818:	c9                   	leave
  100819:	c3                   	ret

0010081a <vga_write_hex32>:
  10081a:	55                   	push   %ebp
  10081b:	89 e5                	mov    %esp,%ebp
  10081d:	83 ec 28             	sub    $0x28,%esp
  100820:	c6 45 e4 30          	movb   $0x30,-0x1c(%ebp)
  100824:	c6 45 e5 78          	movb   $0x78,-0x1b(%ebp)
  100828:	c7 45 f4 00 00 00 00 	movl   $0x0,-0xc(%ebp)
  10082f:	eb 48                	jmp    100879 <vga_write_hex32+0x5f>
  100831:	b8 07 00 00 00       	mov    $0x7,%eax
  100836:	2b 45 f4             	sub    -0xc(%ebp),%eax
  100839:	c1 e0 02             	shl    $0x2,%eax
  10083c:	89 45 f0             	mov    %eax,-0x10(%ebp)
  10083f:	8b 45 f0             	mov    -0x10(%ebp),%eax
  100842:	8b 55 08             	mov    0x8(%ebp),%edx
  100845:	89 c1                	mov    %eax,%ecx
  100847:	d3 ea                	shr    %cl,%edx
  100849:	89 d0                	mov    %edx,%eax
  10084b:	83 e0 0f             	and    $0xf,%eax
  10084e:	88 45 ef             	mov    %al,-0x11(%ebp)
  100851:	80 7d ef 09          	cmpb   $0x9,-0x11(%ebp)
  100855:	77 0b                	ja     100862 <vga_write_hex32+0x48>
  100857:	0f b6 45 ef          	movzbl -0x11(%ebp),%eax
  10085b:	83 c0 30             	add    $0x30,%eax
  10085e:	89 c2                	mov    %eax,%edx
  100860:	eb 09                	jmp    10086b <vga_write_hex32+0x51>
  100862:	0f b6 45 ef          	movzbl -0x11(%ebp),%eax
  100866:	83 c0 37             	add    $0x37,%eax
  100869:	89 c2                	mov    %eax,%edx
  10086b:	8b 45 f4             	mov    -0xc(%ebp),%eax
  10086e:	83 c0 02             	add    $0x2,%eax
  100871:	88 54 05 e4          	mov    %dl,-0x1c(%ebp,%eax,1)
  100875:	83 45 f4 01          	addl   $0x1,-0xc(%ebp)
  100879:	83 7d f4 07          	cmpl   $0x7,-0xc(%ebp)
  10087d:	7e b2                	jle    100831 <vga_write_hex32+0x17>
  10087f:	c6 45 ee 00          	movb   $0x0,-0x12(%ebp)
  100883:	83 ec 0c             	sub    $0xc,%esp
  100886:	8d 45 e4             	lea    -0x1c(%ebp),%eax
  100889:	50                   	push   %eax
  10088a:	e8 9e 8e 00 00       	call   10972d <vga_write_line>
  10088f:	83 c4 10             	add    $0x10,%esp
  100892:	90                   	nop
  100893:	c9                   	leave
  100894:	c3                   	ret

00100895 <isr_handler>:
  100895:	55                   	push   %ebp
  100896:	89 e5                	mov    %esp,%ebp
  100898:	83 ec 18             	sub    $0x18,%esp
  10089b:	8b 45 08             	mov    0x8(%ebp),%eax
  10089e:	8b 40 30             	mov    0x30(%eax),%eax
  1008a1:	89 45 f4             	mov    %eax,-0xc(%ebp)
  1008a4:	83 7d f4 1f          	cmpl   $0x1f,-0xc(%ebp)
  1008a8:	0f 87 2e 01 00 00    	ja     1009dc <isr_handler+0x147>
  1008ae:	8b 45 f4             	mov    -0xc(%ebp),%eax
  1008b1:	8b 04 85 20 08 13 00 	mov    0x130820(,%eax,4),%eax
  1008b8:	85 c0                	test   %eax,%eax
  1008ba:	74 1a                	je     1008d6 <isr_handler+0x41>
  1008bc:	8b 45 f4             	mov    -0xc(%ebp),%eax
  1008bf:	8b 04 85 20 08 13 00 	mov    0x130820(,%eax,4),%eax
  1008c6:	83 ec 0c             	sub    $0xc,%esp
  1008c9:	ff 75 08             	push   0x8(%ebp)
  1008cc:	ff d0                	call   *%eax
  1008ce:	83 c4 10             	add    $0x10,%esp
  1008d1:	e9 06 01 00 00       	jmp    1009dc <isr_handler+0x147>
  1008d6:	83 ec 08             	sub    $0x8,%esp
  1008d9:	6a 00                	push   $0x0
  1008db:	6a 0c                	push   $0xc
  1008dd:	e8 f9 8c 00 00       	call   1095db <vga_set_color>
  1008e2:	83 c4 10             	add    $0x10,%esp
  1008e5:	83 ec 0c             	sub    $0xc,%esp
  1008e8:	68 ec 0f 12 00       	push   $0x120fec
  1008ed:	e8 3b 8e 00 00       	call   10972d <vga_write_line>
  1008f2:	83 c4 10             	add    $0x10,%esp
  1008f5:	83 7d f4 1f          	cmpl   $0x1f,-0xc(%ebp)
  1008f9:	0f 87 ca 00 00 00    	ja     1009c9 <isr_handler+0x134>
  1008ff:	8b 45 f4             	mov    -0xc(%ebp),%eax
  100902:	8b 04 85 00 e0 12 00 	mov    0x12e000(,%eax,4),%eax
  100909:	83 ec 0c             	sub    $0xc,%esp
  10090c:	50                   	push   %eax
  10090d:	e8 1b 8e 00 00       	call   10972d <vga_write_line>
  100912:	83 c4 10             	add    $0x10,%esp
  100915:	83 ec 0c             	sub    $0xc,%esp
  100918:	68 fb 0f 12 00       	push   $0x120ffb
  10091d:	e8 da 8d 00 00       	call   1096fc <vga_write>
  100922:	83 c4 10             	add    $0x10,%esp
  100925:	83 ec 0c             	sub    $0xc,%esp
  100928:	ff 75 f4             	push   -0xc(%ebp)
  10092b:	e8 ea fe ff ff       	call   10081a <vga_write_hex32>
  100930:	83 c4 10             	add    $0x10,%esp
  100933:	83 ec 0c             	sub    $0xc,%esp
  100936:	68 04 10 12 00       	push   $0x121004
  10093b:	e8 ed 8d 00 00       	call   10972d <vga_write_line>
  100940:	83 c4 10             	add    $0x10,%esp
  100943:	83 ec 0c             	sub    $0xc,%esp
  100946:	68 05 10 12 00       	push   $0x121005
  10094b:	e8 ac 8d 00 00       	call   1096fc <vga_write>
  100950:	83 c4 10             	add    $0x10,%esp
  100953:	8b 45 08             	mov    0x8(%ebp),%eax
  100956:	8b 40 34             	mov    0x34(%eax),%eax
  100959:	83 ec 0c             	sub    $0xc,%esp
  10095c:	50                   	push   %eax
  10095d:	e8 b8 fe ff ff       	call   10081a <vga_write_hex32>
  100962:	83 c4 10             	add    $0x10,%esp
  100965:	83 ec 0c             	sub    $0xc,%esp
  100968:	68 04 10 12 00       	push   $0x121004
  10096d:	e8 bb 8d 00 00       	call   10972d <vga_write_line>
  100972:	83 c4 10             	add    $0x10,%esp
  100975:	83 ec 0c             	sub    $0xc,%esp
  100978:	68 0d 10 12 00       	push   $0x12100d
  10097d:	e8 7a 8d 00 00       	call   1096fc <vga_write>
  100982:	83 c4 10             	add    $0x10,%esp
  100985:	8b 45 08             	mov    0x8(%ebp),%eax
  100988:	8b 40 38             	mov    0x38(%eax),%eax
  10098b:	83 ec 0c             	sub    $0xc,%esp
  10098e:	50                   	push   %eax
  10098f:	e8 86 fe ff ff       	call   10081a <vga_write_hex32>
  100994:	83 c4 10             	add    $0x10,%esp
  100997:	83 ec 0c             	sub    $0xc,%esp
  10099a:	68 13 10 12 00       	push   $0x121013
  10099f:	e8 58 8d 00 00       	call   1096fc <vga_write>
  1009a4:	83 c4 10             	add    $0x10,%esp
  1009a7:	8b 45 08             	mov    0x8(%ebp),%eax
  1009aa:	8b 40 3c             	mov    0x3c(%eax),%eax
  1009ad:	83 ec 0c             	sub    $0xc,%esp
  1009b0:	50                   	push   %eax
  1009b1:	e8 64 fe ff ff       	call   10081a <vga_write_hex32>
  1009b6:	83 c4 10             	add    $0x10,%esp
  1009b9:	83 ec 0c             	sub    $0xc,%esp
  1009bc:	68 04 10 12 00       	push   $0x121004
  1009c1:	e8 67 8d 00 00       	call   10972d <vga_write_line>
  1009c6:	83 c4 10             	add    $0x10,%esp
  1009c9:	83 ec 0c             	sub    $0xc,%esp
  1009cc:	68 19 10 12 00       	push   $0x121019
  1009d1:	e8 57 8d 00 00       	call   10972d <vga_write_line>
  1009d6:	83 c4 10             	add    $0x10,%esp
  1009d9:	f4                   	hlt
  1009da:	eb fd                	jmp    1009d9 <isr_handler+0x144>
  1009dc:	c9                   	leave
  1009dd:	c3                   	ret

001009de <irq_handler>:
  1009de:	55                   	push   %ebp
  1009df:	89 e5                	mov    %esp,%ebp
  1009e1:	83 ec 18             	sub    $0x18,%esp
  1009e4:	8b 45 08             	mov    0x8(%ebp),%eax
  1009e7:	8b 40 30             	mov    0x30(%eax),%eax
  1009ea:	89 45 f0             	mov    %eax,-0x10(%ebp)
  1009ed:	83 7d f0 1f          	cmpl   $0x1f,-0x10(%ebp)
  1009f1:	0f 86 8c 00 00 00    	jbe    100a83 <irq_handler+0xa5>
  1009f7:	83 7d f0 2f          	cmpl   $0x2f,-0x10(%ebp)
  1009fb:	0f 87 82 00 00 00    	ja     100a83 <irq_handler+0xa5>
  100a01:	8b 45 f0             	mov    -0x10(%ebp),%eax
  100a04:	83 e8 20             	sub    $0x20,%eax
  100a07:	88 45 ef             	mov    %al,-0x11(%ebp)
  100a0a:	0f b6 45 ef          	movzbl -0x11(%ebp),%eax
  100a0e:	6b c0 34             	imul   $0x34,%eax,%eax
  100a11:	05 a0 08 13 00       	add    $0x1308a0,%eax
  100a16:	89 45 e8             	mov    %eax,-0x18(%ebp)
  100a19:	8b 45 e8             	mov    -0x18(%ebp),%eax
  100a1c:	8b 00                	mov    (%eax),%eax
  100a1e:	85 c0                	test   %eax,%eax
  100a20:	74 10                	je     100a32 <irq_handler+0x54>
  100a22:	8b 45 e8             	mov    -0x18(%ebp),%eax
  100a25:	8b 00                	mov    (%eax),%eax
  100a27:	83 ec 0c             	sub    $0xc,%esp
  100a2a:	ff 75 08             	push   0x8(%ebp)
  100a2d:	ff d0                	call   *%eax
  100a2f:	83 c4 10             	add    $0x10,%esp
  100a32:	c7 45 f4 00 00 00 00 	movl   $0x0,-0xc(%ebp)
  100a39:	eb 32                	jmp    100a6d <irq_handler+0x8f>
  100a3b:	8b 45 e8             	mov    -0x18(%ebp),%eax
  100a3e:	8b 55 f4             	mov    -0xc(%ebp),%edx
  100a41:	8b 44 d0 04          	mov    0x4(%eax,%edx,8),%eax
  100a45:	85 c0                	test   %eax,%eax
  100a47:	74 20                	je     100a69 <irq_handler+0x8b>
  100a49:	8b 45 e8             	mov    -0x18(%ebp),%eax
  100a4c:	8b 55 f4             	mov    -0xc(%ebp),%edx
  100a4f:	8b 44 d0 04          	mov    0x4(%eax,%edx,8),%eax
  100a53:	8b 55 e8             	mov    -0x18(%ebp),%edx
  100a56:	8b 4d f4             	mov    -0xc(%ebp),%ecx
  100a59:	8b 54 ca 08          	mov    0x8(%edx,%ecx,8),%edx
  100a5d:	83 ec 08             	sub    $0x8,%esp
  100a60:	52                   	push   %edx
  100a61:	ff 75 08             	push   0x8(%ebp)
  100a64:	ff d0                	call   *%eax
  100a66:	83 c4 10             	add    $0x10,%esp
  100a69:	83 45 f4 01          	addl   $0x1,-0xc(%ebp)
  100a6d:	83 7d f4 03          	cmpl   $0x3,-0xc(%ebp)
  100a71:	76 c8                	jbe    100a3b <irq_handler+0x5d>
  100a73:	0f b6 45 ef          	movzbl -0x11(%ebp),%eax
  100a77:	83 ec 0c             	sub    $0xc,%esp
  100a7a:	50                   	push   %eax
  100a7b:	e8 b2 09 00 00       	call   101432 <pic_send_eoi>
  100a80:	83 c4 10             	add    $0x10,%esp
  100a83:	90                   	nop
  100a84:	c9                   	leave
  100a85:	c3                   	ret

00100a86 <isr_install_handler>:
  100a86:	55                   	push   %ebp
  100a87:	89 e5                	mov    %esp,%ebp
  100a89:	83 7d 08 00          	cmpl   $0x0,0x8(%ebp)
  100a8d:	78 13                	js     100aa2 <isr_install_handler+0x1c>
  100a8f:	83 7d 08 1f          	cmpl   $0x1f,0x8(%ebp)
  100a93:	7f 0d                	jg     100aa2 <isr_install_handler+0x1c>
  100a95:	8b 45 08             	mov    0x8(%ebp),%eax
  100a98:	8b 55 0c             	mov    0xc(%ebp),%edx
  100a9b:	89 14 85 20 08 13 00 	mov    %edx,0x130820(,%eax,4)
  100aa2:	90                   	nop
  100aa3:	5d                   	pop    %ebp
  100aa4:	c3                   	ret

00100aa5 <irq_install_handler>:
  100aa5:	55                   	push   %ebp
  100aa6:	89 e5                	mov    %esp,%ebp
  100aa8:	83 ec 18             	sub    $0x18,%esp
  100aab:	83 7d 08 00          	cmpl   $0x0,0x8(%ebp)
  100aaf:	78 51                	js     100b02 <irq_install_handler+0x5d>
  100ab1:	83 7d 08 0f          	cmpl   $0xf,0x8(%ebp)
  100ab5:	7f 4b                	jg     100b02 <irq_install_handler+0x5d>
  100ab7:	83 ec 08             	sub    $0x8,%esp
  100aba:	8d 45 f4             	lea    -0xc(%ebp),%eax
  100abd:	50                   	push   %eax
  100abe:	68 e0 0b 13 00       	push   $0x130be0
  100ac3:	e8 ad ab 01 00       	call   11b675 <spinlock_lock_irqsave>
  100ac8:	83 c4 10             	add    $0x10,%esp
  100acb:	8b 45 08             	mov    0x8(%ebp),%eax
  100ace:	6b c0 34             	imul   $0x34,%eax,%eax
  100ad1:	8d 90 a0 08 13 00    	lea    0x1308a0(%eax),%edx
  100ad7:	8b 45 0c             	mov    0xc(%ebp),%eax
  100ada:	89 02                	mov    %eax,(%edx)
  100adc:	8b 45 f4             	mov    -0xc(%ebp),%eax
  100adf:	83 ec 08             	sub    $0x8,%esp
  100ae2:	50                   	push   %eax
  100ae3:	68 e0 0b 13 00       	push   $0x130be0
  100ae8:	e8 b8 ab 01 00       	call   11b6a5 <spinlock_unlock_irqrestore>
  100aed:	83 c4 10             	add    $0x10,%esp
  100af0:	8b 45 08             	mov    0x8(%ebp),%eax
  100af3:	0f b6 c0             	movzbl %al,%eax
  100af6:	83 ec 0c             	sub    $0xc,%esp
  100af9:	50                   	push   %eax
  100afa:	e8 63 09 00 00       	call   101462 <pic_clear_mask>
  100aff:	83 c4 10             	add    $0x10,%esp
  100b02:	90                   	nop
  100b03:	c9                   	leave
  100b04:	c3                   	ret

00100b05 <irq_uninstall_handler>:
  100b05:	55                   	push   %ebp
  100b06:	89 e5                	mov    %esp,%ebp
  100b08:	83 ec 18             	sub    $0x18,%esp
  100b0b:	83 7d 08 00          	cmpl   $0x0,0x8(%ebp)
  100b0f:	78 51                	js     100b62 <irq_uninstall_handler+0x5d>
  100b11:	83 7d 08 0f          	cmpl   $0xf,0x8(%ebp)
  100b15:	7f 4b                	jg     100b62 <irq_uninstall_handler+0x5d>
  100b17:	83 ec 08             	sub    $0x8,%esp
  100b1a:	8d 45 f4             	lea    -0xc(%ebp),%eax
  100b1d:	50                   	push   %eax
  100b1e:	68 e0 0b 13 00       	push   $0x130be0
  100b23:	e8 4d ab 01 00       	call   11b675 <spinlock_lock_irqsave>
  100b28:	83 c4 10             	add    $0x10,%esp
  100b2b:	8b 45 08             	mov    0x8(%ebp),%eax
  100b2e:	6b c0 34             	imul   $0x34,%eax,%eax
  100b31:	05 a0 08 13 00       	add    $0x1308a0,%eax
  100b36:	c7 00 00 00 00 00    	movl   $0x0,(%eax)
  100b3c:	8b 45 f4             	mov    -0xc(%ebp),%eax
  100b3f:	83 ec 08             	sub    $0x8,%esp
  100b42:	50                   	push   %eax
  100b43:	68 e0 0b 13 00       	push   $0x130be0
  100b48:	e8 58 ab 01 00       	call   11b6a5 <spinlock_unlock_irqrestore>
  100b4d:	83 c4 10             	add    $0x10,%esp
  100b50:	8b 45 08             	mov    0x8(%ebp),%eax
  100b53:	0f b6 c0             	movzbl %al,%eax
  100b56:	83 ec 0c             	sub    $0xc,%esp
  100b59:	50                   	push   %eax
  100b5a:	e8 39 09 00 00       	call   101498 <pic_set_mask>
  100b5f:	83 c4 10             	add    $0x10,%esp
  100b62:	90                   	nop
  100b63:	c9                   	leave
  100b64:	c3                   	ret

00100b65 <irq_register_shared_handler>:
  100b65:	55                   	push   %ebp
  100b66:	89 e5                	mov    %esp,%ebp
  100b68:	83 ec 18             	sub    $0x18,%esp
  100b6b:	83 7d 08 00          	cmpl   $0x0,0x8(%ebp)
  100b6f:	78 0c                	js     100b7d <irq_register_shared_handler+0x18>
  100b71:	83 7d 08 0f          	cmpl   $0xf,0x8(%ebp)
  100b75:	7f 06                	jg     100b7d <irq_register_shared_handler+0x18>
  100b77:	83 7d 0c 00          	cmpl   $0x0,0xc(%ebp)
  100b7b:	75 0a                	jne    100b87 <irq_register_shared_handler+0x22>
  100b7d:	b8 ff ff ff ff       	mov    $0xffffffff,%eax
  100b82:	e9 f2 00 00 00       	jmp    100c79 <irq_register_shared_handler+0x114>
  100b87:	83 ec 08             	sub    $0x8,%esp
  100b8a:	8d 45 e8             	lea    -0x18(%ebp),%eax
  100b8d:	50                   	push   %eax
  100b8e:	68 e0 0b 13 00       	push   $0x130be0
  100b93:	e8 dd aa 01 00       	call   11b675 <spinlock_lock_irqsave>
  100b98:	83 c4 10             	add    $0x10,%esp
  100b9b:	8b 45 08             	mov    0x8(%ebp),%eax
  100b9e:	6b c0 34             	imul   $0x34,%eax,%eax
  100ba1:	05 a0 08 13 00       	add    $0x1308a0,%eax
  100ba6:	89 45 ec             	mov    %eax,-0x14(%ebp)
  100ba9:	c7 45 f4 00 00 00 00 	movl   $0x0,-0xc(%ebp)
  100bb0:	eb 40                	jmp    100bf2 <irq_register_shared_handler+0x8d>
  100bb2:	8b 45 ec             	mov    -0x14(%ebp),%eax
  100bb5:	8b 55 f4             	mov    -0xc(%ebp),%edx
  100bb8:	8b 44 d0 04          	mov    0x4(%eax,%edx,8),%eax
  100bbc:	39 45 0c             	cmp    %eax,0xc(%ebp)
  100bbf:	75 2d                	jne    100bee <irq_register_shared_handler+0x89>
  100bc1:	8b 45 ec             	mov    -0x14(%ebp),%eax
  100bc4:	8b 55 f4             	mov    -0xc(%ebp),%edx
  100bc7:	8b 44 d0 08          	mov    0x8(%eax,%edx,8),%eax
  100bcb:	39 45 10             	cmp    %eax,0x10(%ebp)
  100bce:	75 1e                	jne    100bee <irq_register_shared_handler+0x89>
  100bd0:	8b 45 e8             	mov    -0x18(%ebp),%eax
  100bd3:	83 ec 08             	sub    $0x8,%esp
  100bd6:	50                   	push   %eax
  100bd7:	68 e0 0b 13 00       	push   $0x130be0
  100bdc:	e8 c4 aa 01 00       	call   11b6a5 <spinlock_unlock_irqrestore>
  100be1:	83 c4 10             	add    $0x10,%esp
  100be4:	b8 00 00 00 00       	mov    $0x0,%eax
  100be9:	e9 8b 00 00 00       	jmp    100c79 <irq_register_shared_handler+0x114>
  100bee:	83 45 f4 01          	addl   $0x1,-0xc(%ebp)
  100bf2:	83 7d f4 03          	cmpl   $0x3,-0xc(%ebp)
  100bf6:	76 ba                	jbe    100bb2 <irq_register_shared_handler+0x4d>
  100bf8:	c7 45 f0 00 00 00 00 	movl   $0x0,-0x10(%ebp)
  100bff:	eb 59                	jmp    100c5a <irq_register_shared_handler+0xf5>
  100c01:	8b 45 ec             	mov    -0x14(%ebp),%eax
  100c04:	8b 55 f0             	mov    -0x10(%ebp),%edx
  100c07:	8b 44 d0 04          	mov    0x4(%eax,%edx,8),%eax
  100c0b:	85 c0                	test   %eax,%eax
  100c0d:	75 47                	jne    100c56 <irq_register_shared_handler+0xf1>
  100c0f:	8b 45 ec             	mov    -0x14(%ebp),%eax
  100c12:	8b 55 f0             	mov    -0x10(%ebp),%edx
  100c15:	8b 4d 0c             	mov    0xc(%ebp),%ecx
  100c18:	89 4c d0 04          	mov    %ecx,0x4(%eax,%edx,8)
  100c1c:	8b 45 ec             	mov    -0x14(%ebp),%eax
  100c1f:	8b 55 f0             	mov    -0x10(%ebp),%edx
  100c22:	8b 4d 10             	mov    0x10(%ebp),%ecx
  100c25:	89 4c d0 08          	mov    %ecx,0x8(%eax,%edx,8)
  100c29:	8b 45 e8             	mov    -0x18(%ebp),%eax
  100c2c:	83 ec 08             	sub    $0x8,%esp
  100c2f:	50                   	push   %eax
  100c30:	68 e0 0b 13 00       	push   $0x130be0
  100c35:	e8 6b aa 01 00       	call   11b6a5 <spinlock_unlock_irqrestore>
  100c3a:	83 c4 10             	add    $0x10,%esp
  100c3d:	8b 45 08             	mov    0x8(%ebp),%eax
  100c40:	0f b6 c0             	movzbl %al,%eax
  100c43:	83 ec 0c             	sub    $0xc,%esp
  100c46:	50                   	push   %eax
  100c47:	e8 16 08 00 00       	call   101462 <pic_clear_mask>
  100c4c:	83 c4 10             	add    $0x10,%esp
  100c4f:	b8 00 00 00 00       	mov    $0x0,%eax
  100c54:	eb 23                	jmp    100c79 <irq_register_shared_handler+0x114>
  100c56:	83 45 f0 01          	addl   $0x1,-0x10(%ebp)
  100c5a:	83 7d f0 03          	cmpl   $0x3,-0x10(%ebp)
  100c5e:	76 a1                	jbe    100c01 <irq_register_shared_handler+0x9c>
  100c60:	8b 45 e8             	mov    -0x18(%ebp),%eax
  100c63:	83 ec 08             	sub    $0x8,%esp
  100c66:	50                   	push   %eax
  100c67:	68 e0 0b 13 00       	push   $0x130be0
  100c6c:	e8 34 aa 01 00       	call   11b6a5 <spinlock_unlock_irqrestore>
  100c71:	83 c4 10             	add    $0x10,%esp
  100c74:	b8 ff ff ff ff       	mov    $0xffffffff,%eax
  100c79:	c9                   	leave
  100c7a:	c3                   	ret

00100c7b <irq_unregister_shared_handler>:
  100c7b:	55                   	push   %ebp
  100c7c:	89 e5                	mov    %esp,%ebp
  100c7e:	83 ec 18             	sub    $0x18,%esp
  100c81:	83 7d 08 00          	cmpl   $0x0,0x8(%ebp)
  100c85:	78 0c                	js     100c93 <irq_unregister_shared_handler+0x18>
  100c87:	83 7d 08 0f          	cmpl   $0xf,0x8(%ebp)
  100c8b:	7f 06                	jg     100c93 <irq_unregister_shared_handler+0x18>
  100c8d:	83 7d 0c 00          	cmpl   $0x0,0xc(%ebp)
  100c91:	75 0a                	jne    100c9d <irq_unregister_shared_handler+0x22>
  100c93:	b8 ff ff ff ff       	mov    $0xffffffff,%eax
  100c98:	e9 a3 00 00 00       	jmp    100d40 <irq_unregister_shared_handler+0xc5>
  100c9d:	83 ec 08             	sub    $0x8,%esp
  100ca0:	8d 45 ec             	lea    -0x14(%ebp),%eax
  100ca3:	50                   	push   %eax
  100ca4:	68 e0 0b 13 00       	push   $0x130be0
  100ca9:	e8 c7 a9 01 00       	call   11b675 <spinlock_lock_irqsave>
  100cae:	83 c4 10             	add    $0x10,%esp
  100cb1:	8b 45 08             	mov    0x8(%ebp),%eax
  100cb4:	6b c0 34             	imul   $0x34,%eax,%eax
  100cb7:	05 a0 08 13 00       	add    $0x1308a0,%eax
  100cbc:	89 45 f0             	mov    %eax,-0x10(%ebp)
  100cbf:	c7 45 f4 00 00 00 00 	movl   $0x0,-0xc(%ebp)
  100cc6:	eb 59                	jmp    100d21 <irq_unregister_shared_handler+0xa6>
  100cc8:	8b 45 f0             	mov    -0x10(%ebp),%eax
  100ccb:	8b 55 f4             	mov    -0xc(%ebp),%edx
  100cce:	8b 44 d0 04          	mov    0x4(%eax,%edx,8),%eax
  100cd2:	39 45 0c             	cmp    %eax,0xc(%ebp)
  100cd5:	75 46                	jne    100d1d <irq_unregister_shared_handler+0xa2>
  100cd7:	8b 45 f0             	mov    -0x10(%ebp),%eax
  100cda:	8b 55 f4             	mov    -0xc(%ebp),%edx
  100cdd:	8b 44 d0 08          	mov    0x8(%eax,%edx,8),%eax
  100ce1:	39 45 10             	cmp    %eax,0x10(%ebp)
  100ce4:	75 37                	jne    100d1d <irq_unregister_shared_handler+0xa2>
  100ce6:	8b 45 f0             	mov    -0x10(%ebp),%eax
  100ce9:	8b 55 f4             	mov    -0xc(%ebp),%edx
  100cec:	c7 44 d0 04 00 00 00 	movl   $0x0,0x4(%eax,%edx,8)
  100cf3:	00 
  100cf4:	8b 45 f0             	mov    -0x10(%ebp),%eax
  100cf7:	8b 55 f4             	mov    -0xc(%ebp),%edx
  100cfa:	c7 44 d0 08 00 00 00 	movl   $0x0,0x8(%eax,%edx,8)
  100d01:	00 
  100d02:	8b 45 ec             	mov    -0x14(%ebp),%eax
  100d05:	83 ec 08             	sub    $0x8,%esp
  100d08:	50                   	push   %eax
  100d09:	68 e0 0b 13 00       	push   $0x130be0
  100d0e:	e8 92 a9 01 00       	call   11b6a5 <spinlock_unlock_irqrestore>
  100d13:	83 c4 10             	add    $0x10,%esp
  100d16:	b8 00 00 00 00       	mov    $0x0,%eax
  100d1b:	eb 23                	jmp    100d40 <irq_unregister_shared_handler+0xc5>
  100d1d:	83 45 f4 01          	addl   $0x1,-0xc(%ebp)
  100d21:	83 7d f4 03          	cmpl   $0x3,-0xc(%ebp)
  100d25:	76 a1                	jbe    100cc8 <irq_unregister_shared_handler+0x4d>
  100d27:	8b 45 ec             	mov    -0x14(%ebp),%eax
  100d2a:	83 ec 08             	sub    $0x8,%esp
  100d2d:	50                   	push   %eax
  100d2e:	68 e0 0b 13 00       	push   $0x130be0
  100d33:	e8 6d a9 01 00       	call   11b6a5 <spinlock_unlock_irqrestore>
  100d38:	83 c4 10             	add    $0x10,%esp
  100d3b:	b8 ff ff ff ff       	mov    $0xffffffff,%eax
  100d40:	c9                   	leave
  100d41:	c3                   	ret

00100d42 <irq_mailbox_init>:
  100d42:	55                   	push   %ebp
  100d43:	89 e5                	mov    %esp,%ebp
  100d45:	83 ec 08             	sub    $0x8,%esp
  100d48:	83 7d 08 00          	cmpl   $0x0,0x8(%ebp)
  100d4c:	74 34                	je     100d82 <irq_mailbox_init+0x40>
  100d4e:	8b 45 08             	mov    0x8(%ebp),%eax
  100d51:	c6 80 80 01 00 00 00 	movb   $0x0,0x180(%eax)
  100d58:	8b 45 08             	mov    0x8(%ebp),%eax
  100d5b:	c6 80 81 01 00 00 00 	movb   $0x0,0x181(%eax)
  100d62:	8b 45 08             	mov    0x8(%ebp),%eax
  100d65:	c6 80 82 01 00 00 00 	movb   $0x0,0x182(%eax)
  100d6c:	8b 45 08             	mov    0x8(%ebp),%eax
  100d6f:	05 84 01 00 00       	add    $0x184,%eax
  100d74:	83 ec 0c             	sub    $0xc,%esp
  100d77:	50                   	push   %eax
  100d78:	e8 89 a8 01 00       	call   11b606 <spinlock_init>
  100d7d:	83 c4 10             	add    $0x10,%esp
  100d80:	eb 01                	jmp    100d83 <irq_mailbox_init+0x41>
  100d82:	90                   	nop
  100d83:	c9                   	leave
  100d84:	c3                   	ret

00100d85 <irq_mailbox_subscribe>:
  100d85:	55                   	push   %ebp
  100d86:	89 e5                	mov    %esp,%ebp
  100d88:	83 ec 18             	sub    $0x18,%esp
  100d8b:	83 7d 08 00          	cmpl   $0x0,0x8(%ebp)
  100d8f:	78 0c                	js     100d9d <irq_mailbox_subscribe+0x18>
  100d91:	83 7d 08 0f          	cmpl   $0xf,0x8(%ebp)
  100d95:	7f 06                	jg     100d9d <irq_mailbox_subscribe+0x18>
  100d97:	83 7d 0c 00          	cmpl   $0x0,0xc(%ebp)
  100d9b:	75 0a                	jne    100da7 <irq_mailbox_subscribe+0x22>
  100d9d:	b8 ff ff ff ff       	mov    $0xffffffff,%eax
  100da2:	e9 df 00 00 00       	jmp    100e86 <irq_mailbox_subscribe+0x101>
  100da7:	83 ec 08             	sub    $0x8,%esp
  100daa:	8d 45 e8             	lea    -0x18(%ebp),%eax
  100dad:	50                   	push   %eax
  100dae:	68 e0 0b 13 00       	push   $0x130be0
  100db3:	e8 bd a8 01 00       	call   11b675 <spinlock_lock_irqsave>
  100db8:	83 c4 10             	add    $0x10,%esp
  100dbb:	8b 45 08             	mov    0x8(%ebp),%eax
  100dbe:	6b c0 34             	imul   $0x34,%eax,%eax
  100dc1:	05 a0 08 13 00       	add    $0x1308a0,%eax
  100dc6:	89 45 ec             	mov    %eax,-0x14(%ebp)
  100dc9:	c7 45 f4 00 00 00 00 	movl   $0x0,-0xc(%ebp)
  100dd0:	eb 34                	jmp    100e06 <irq_mailbox_subscribe+0x81>
  100dd2:	8b 45 ec             	mov    -0x14(%ebp),%eax
  100dd5:	8b 55 f4             	mov    -0xc(%ebp),%edx
  100dd8:	83 c2 08             	add    $0x8,%edx
  100ddb:	8b 44 90 04          	mov    0x4(%eax,%edx,4),%eax
  100ddf:	39 45 0c             	cmp    %eax,0xc(%ebp)
  100de2:	75 1e                	jne    100e02 <irq_mailbox_subscribe+0x7d>
  100de4:	8b 45 e8             	mov    -0x18(%ebp),%eax
  100de7:	83 ec 08             	sub    $0x8,%esp
  100dea:	50                   	push   %eax
  100deb:	68 e0 0b 13 00       	push   $0x130be0
  100df0:	e8 b0 a8 01 00       	call   11b6a5 <spinlock_unlock_irqrestore>
  100df5:	83 c4 10             	add    $0x10,%esp
  100df8:	b8 00 00 00 00       	mov    $0x0,%eax
  100dfd:	e9 84 00 00 00       	jmp    100e86 <irq_mailbox_subscribe+0x101>
  100e02:	83 45 f4 01          	addl   $0x1,-0xc(%ebp)
  100e06:	83 7d f4 03          	cmpl   $0x3,-0xc(%ebp)
  100e0a:	76 c6                	jbe    100dd2 <irq_mailbox_subscribe+0x4d>
  100e0c:	c7 45 f0 00 00 00 00 	movl   $0x0,-0x10(%ebp)
  100e13:	eb 52                	jmp    100e67 <irq_mailbox_subscribe+0xe2>
  100e15:	8b 45 ec             	mov    -0x14(%ebp),%eax
  100e18:	8b 55 f0             	mov    -0x10(%ebp),%edx
  100e1b:	83 c2 08             	add    $0x8,%edx
  100e1e:	8b 44 90 04          	mov    0x4(%eax,%edx,4),%eax
  100e22:	85 c0                	test   %eax,%eax
  100e24:	75 3d                	jne    100e63 <irq_mailbox_subscribe+0xde>
  100e26:	8b 45 ec             	mov    -0x14(%ebp),%eax
  100e29:	8b 55 f0             	mov    -0x10(%ebp),%edx
  100e2c:	8d 4a 08             	lea    0x8(%edx),%ecx
  100e2f:	8b 55 0c             	mov    0xc(%ebp),%edx
  100e32:	89 54 88 04          	mov    %edx,0x4(%eax,%ecx,4)
  100e36:	8b 45 e8             	mov    -0x18(%ebp),%eax
  100e39:	83 ec 08             	sub    $0x8,%esp
  100e3c:	50                   	push   %eax
  100e3d:	68 e0 0b 13 00       	push   $0x130be0
  100e42:	e8 5e a8 01 00       	call   11b6a5 <spinlock_unlock_irqrestore>
  100e47:	83 c4 10             	add    $0x10,%esp
  100e4a:	8b 45 08             	mov    0x8(%ebp),%eax
  100e4d:	0f b6 c0             	movzbl %al,%eax
  100e50:	83 ec 0c             	sub    $0xc,%esp
  100e53:	50                   	push   %eax
  100e54:	e8 09 06 00 00       	call   101462 <pic_clear_mask>
  100e59:	83 c4 10             	add    $0x10,%esp
  100e5c:	b8 00 00 00 00       	mov    $0x0,%eax
  100e61:	eb 23                	jmp    100e86 <irq_mailbox_subscribe+0x101>
  100e63:	83 45 f0 01          	addl   $0x1,-0x10(%ebp)
  100e67:	83 7d f0 03          	cmpl   $0x3,-0x10(%ebp)
  100e6b:	76 a8                	jbe    100e15 <irq_mailbox_subscribe+0x90>
  100e6d:	8b 45 e8             	mov    -0x18(%ebp),%eax
  100e70:	83 ec 08             	sub    $0x8,%esp
  100e73:	50                   	push   %eax
  100e74:	68 e0 0b 13 00       	push   $0x130be0
  100e79:	e8 27 a8 01 00       	call   11b6a5 <spinlock_unlock_irqrestore>
  100e7e:	83 c4 10             	add    $0x10,%esp
  100e81:	b8 ff ff ff ff       	mov    $0xffffffff,%eax
  100e86:	c9                   	leave
  100e87:	c3                   	ret

00100e88 <irq_mailbox_unsubscribe>:
  100e88:	55                   	push   %ebp
  100e89:	89 e5                	mov    %esp,%ebp
  100e8b:	83 ec 18             	sub    $0x18,%esp
  100e8e:	83 7d 08 00          	cmpl   $0x0,0x8(%ebp)
  100e92:	78 0c                	js     100ea0 <irq_mailbox_unsubscribe+0x18>
  100e94:	83 7d 08 0f          	cmpl   $0xf,0x8(%ebp)
  100e98:	7f 06                	jg     100ea0 <irq_mailbox_unsubscribe+0x18>
  100e9a:	83 7d 0c 00          	cmpl   $0x0,0xc(%ebp)
  100e9e:	75 0a                	jne    100eaa <irq_mailbox_unsubscribe+0x22>
  100ea0:	b8 ff ff ff ff       	mov    $0xffffffff,%eax
  100ea5:	e9 8c 00 00 00       	jmp    100f36 <irq_mailbox_unsubscribe+0xae>
  100eaa:	83 ec 08             	sub    $0x8,%esp
  100ead:	8d 45 ec             	lea    -0x14(%ebp),%eax
  100eb0:	50                   	push   %eax
  100eb1:	68 e0 0b 13 00       	push   $0x130be0
  100eb6:	e8 ba a7 01 00       	call   11b675 <spinlock_lock_irqsave>
  100ebb:	83 c4 10             	add    $0x10,%esp
  100ebe:	8b 45 08             	mov    0x8(%ebp),%eax
  100ec1:	6b c0 34             	imul   $0x34,%eax,%eax
  100ec4:	05 a0 08 13 00       	add    $0x1308a0,%eax
  100ec9:	89 45 f0             	mov    %eax,-0x10(%ebp)
  100ecc:	c7 45 f4 00 00 00 00 	movl   $0x0,-0xc(%ebp)
  100ed3:	eb 42                	jmp    100f17 <irq_mailbox_unsubscribe+0x8f>
  100ed5:	8b 45 f0             	mov    -0x10(%ebp),%eax
  100ed8:	8b 55 f4             	mov    -0xc(%ebp),%edx
  100edb:	83 c2 08             	add    $0x8,%edx
  100ede:	8b 44 90 04          	mov    0x4(%eax,%edx,4),%eax
  100ee2:	39 45 0c             	cmp    %eax,0xc(%ebp)
  100ee5:	75 2c                	jne    100f13 <irq_mailbox_unsubscribe+0x8b>
  100ee7:	8b 45 f0             	mov    -0x10(%ebp),%eax
  100eea:	8b 55 f4             	mov    -0xc(%ebp),%edx
  100eed:	83 c2 08             	add    $0x8,%edx
  100ef0:	c7 44 90 04 00 00 00 	movl   $0x0,0x4(%eax,%edx,4)
  100ef7:	00 
  100ef8:	8b 45 ec             	mov    -0x14(%ebp),%eax
  100efb:	83 ec 08             	sub    $0x8,%esp
  100efe:	50                   	push   %eax
  100eff:	68 e0 0b 13 00       	push   $0x130be0
  100f04:	e8 9c a7 01 00       	call   11b6a5 <spinlock_unlock_irqrestore>
  100f09:	83 c4 10             	add    $0x10,%esp
  100f0c:	b8 00 00 00 00       	mov    $0x0,%eax
  100f11:	eb 23                	jmp    100f36 <irq_mailbox_unsubscribe+0xae>
  100f13:	83 45 f4 01          	addl   $0x1,-0xc(%ebp)
  100f17:	83 7d f4 03          	cmpl   $0x3,-0xc(%ebp)
  100f1b:	76 b8                	jbe    100ed5 <irq_mailbox_unsubscribe+0x4d>
  100f1d:	8b 45 ec             	mov    -0x14(%ebp),%eax
  100f20:	83 ec 08             	sub    $0x8,%esp
  100f23:	50                   	push   %eax
  100f24:	68 e0 0b 13 00       	push   $0x130be0
  100f29:	e8 77 a7 01 00       	call   11b6a5 <spinlock_unlock_irqrestore>
  100f2e:	83 c4 10             	add    $0x10,%esp
  100f31:	b8 ff ff ff ff       	mov    $0xffffffff,%eax
  100f36:	c9                   	leave
  100f37:	c3                   	ret

00100f38 <mailbox_push>:
  100f38:	55                   	push   %ebp
  100f39:	89 e5                	mov    %esp,%ebp
  100f3b:	83 ec 08             	sub    $0x8,%esp
  100f3e:	83 7d 08 00          	cmpl   $0x0,0x8(%ebp)
  100f42:	0f 84 f5 00 00 00    	je     10103d <mailbox_push+0x105>
  100f48:	83 7d 0c 00          	cmpl   $0x0,0xc(%ebp)
  100f4c:	0f 84 eb 00 00 00    	je     10103d <mailbox_push+0x105>
  100f52:	8b 45 08             	mov    0x8(%ebp),%eax
  100f55:	05 84 01 00 00       	add    $0x184,%eax
  100f5a:	83 ec 0c             	sub    $0xc,%esp
  100f5d:	50                   	push   %eax
  100f5e:	e8 ba a6 01 00       	call   11b61d <spinlock_lock>
  100f63:	83 c4 10             	add    $0x10,%esp
  100f66:	8b 45 08             	mov    0x8(%ebp),%eax
  100f69:	0f b6 80 82 01 00 00 	movzbl 0x182(%eax),%eax
  100f70:	3c 1f                	cmp    $0x1f,%al
  100f72:	76 42                	jbe    100fb6 <mailbox_push+0x7e>
  100f74:	8b 45 08             	mov    0x8(%ebp),%eax
  100f77:	0f b6 80 80 01 00 00 	movzbl 0x180(%eax),%eax
  100f7e:	0f b6 c0             	movzbl %al,%eax
  100f81:	8d 50 01             	lea    0x1(%eax),%edx
  100f84:	89 d0                	mov    %edx,%eax
  100f86:	c1 f8 1f             	sar    $0x1f,%eax
  100f89:	c1 e8 1b             	shr    $0x1b,%eax
  100f8c:	01 c2                	add    %eax,%edx
  100f8e:	83 e2 1f             	and    $0x1f,%edx
  100f91:	29 c2                	sub    %eax,%edx
  100f93:	89 d0                	mov    %edx,%eax
  100f95:	89 c2                	mov    %eax,%edx
  100f97:	8b 45 08             	mov    0x8(%ebp),%eax
  100f9a:	88 90 80 01 00 00    	mov    %dl,0x180(%eax)
  100fa0:	8b 45 08             	mov    0x8(%ebp),%eax
  100fa3:	0f b6 80 82 01 00 00 	movzbl 0x182(%eax),%eax
  100faa:	8d 50 ff             	lea    -0x1(%eax),%edx
  100fad:	8b 45 08             	mov    0x8(%ebp),%eax
  100fb0:	88 90 82 01 00 00    	mov    %dl,0x182(%eax)
  100fb6:	8b 45 08             	mov    0x8(%ebp),%eax
  100fb9:	0f b6 80 81 01 00 00 	movzbl 0x181(%eax),%eax
  100fc0:	0f b6 d0             	movzbl %al,%edx
  100fc3:	8b 4d 08             	mov    0x8(%ebp),%ecx
  100fc6:	89 d0                	mov    %edx,%eax
  100fc8:	01 c0                	add    %eax,%eax
  100fca:	01 d0                	add    %edx,%eax
  100fcc:	c1 e0 02             	shl    $0x2,%eax
  100fcf:	8d 14 01             	lea    (%ecx,%eax,1),%edx
  100fd2:	8b 45 0c             	mov    0xc(%ebp),%eax
  100fd5:	8b 08                	mov    (%eax),%ecx
  100fd7:	89 0a                	mov    %ecx,(%edx)
  100fd9:	8b 48 04             	mov    0x4(%eax),%ecx
  100fdc:	89 4a 04             	mov    %ecx,0x4(%edx)
  100fdf:	8b 40 08             	mov    0x8(%eax),%eax
  100fe2:	89 42 08             	mov    %eax,0x8(%edx)
  100fe5:	8b 45 08             	mov    0x8(%ebp),%eax
  100fe8:	0f b6 80 81 01 00 00 	movzbl 0x181(%eax),%eax
  100fef:	0f b6 c0             	movzbl %al,%eax
  100ff2:	8d 50 01             	lea    0x1(%eax),%edx
  100ff5:	89 d0                	mov    %edx,%eax
  100ff7:	c1 f8 1f             	sar    $0x1f,%eax
  100ffa:	c1 e8 1b             	shr    $0x1b,%eax
  100ffd:	01 c2                	add    %eax,%edx
  100fff:	83 e2 1f             	and    $0x1f,%edx
  101002:	29 c2                	sub    %eax,%edx
  101004:	89 d0                	mov    %edx,%eax
  101006:	89 c2                	mov    %eax,%edx
  101008:	8b 45 08             	mov    0x8(%ebp),%eax
  10100b:	88 90 81 01 00 00    	mov    %dl,0x181(%eax)
  101011:	8b 45 08             	mov    0x8(%ebp),%eax
  101014:	0f b6 80 82 01 00 00 	movzbl 0x182(%eax),%eax
  10101b:	8d 50 01             	lea    0x1(%eax),%edx
  10101e:	8b 45 08             	mov    0x8(%ebp),%eax
  101021:	88 90 82 01 00 00    	mov    %dl,0x182(%eax)
  101027:	8b 45 08             	mov    0x8(%ebp),%eax
  10102a:	05 84 01 00 00       	add    $0x184,%eax
  10102f:	83 ec 0c             	sub    $0xc,%esp
  101032:	50                   	push   %eax
  101033:	e8 23 a6 01 00       	call   11b65b <spinlock_unlock>
  101038:	83 c4 10             	add    $0x10,%esp
  10103b:	eb 01                	jmp    10103e <mailbox_push+0x106>
  10103d:	90                   	nop
  10103e:	c9                   	leave
  10103f:	c3                   	ret

00101040 <irq_mailbox_receive>:
  101040:	55                   	push   %ebp
  101041:	89 e5                	mov    %esp,%ebp
  101043:	53                   	push   %ebx
  101044:	83 ec 14             	sub    $0x14,%esp
  101047:	83 7d 08 00          	cmpl   $0x0,0x8(%ebp)
  10104b:	74 06                	je     101053 <irq_mailbox_receive+0x13>
  10104d:	83 7d 0c 00          	cmpl   $0x0,0xc(%ebp)
  101051:	75 0a                	jne    10105d <irq_mailbox_receive+0x1d>
  101053:	b8 00 00 00 00       	mov    $0x0,%eax
  101058:	e9 b7 00 00 00       	jmp    101114 <irq_mailbox_receive+0xd4>
  10105d:	c7 45 f4 00 00 00 00 	movl   $0x0,-0xc(%ebp)
  101064:	8b 45 08             	mov    0x8(%ebp),%eax
  101067:	05 84 01 00 00       	add    $0x184,%eax
  10106c:	83 ec 0c             	sub    $0xc,%esp
  10106f:	50                   	push   %eax
  101070:	e8 a8 a5 01 00       	call   11b61d <spinlock_lock>
  101075:	83 c4 10             	add    $0x10,%esp
  101078:	8b 45 08             	mov    0x8(%ebp),%eax
  10107b:	0f b6 80 82 01 00 00 	movzbl 0x182(%eax),%eax
  101082:	84 c0                	test   %al,%al
  101084:	74 77                	je     1010fd <irq_mailbox_receive+0xbd>
  101086:	8b 45 08             	mov    0x8(%ebp),%eax
  101089:	0f b6 80 80 01 00 00 	movzbl 0x180(%eax),%eax
  101090:	0f b6 c8             	movzbl %al,%ecx
  101093:	8b 55 0c             	mov    0xc(%ebp),%edx
  101096:	8b 5d 08             	mov    0x8(%ebp),%ebx
  101099:	89 c8                	mov    %ecx,%eax
  10109b:	01 c0                	add    %eax,%eax
  10109d:	01 c8                	add    %ecx,%eax
  10109f:	c1 e0 02             	shl    $0x2,%eax
  1010a2:	01 d8                	add    %ebx,%eax
  1010a4:	8b 08                	mov    (%eax),%ecx
  1010a6:	89 0a                	mov    %ecx,(%edx)
  1010a8:	8b 48 04             	mov    0x4(%eax),%ecx
  1010ab:	89 4a 04             	mov    %ecx,0x4(%edx)
  1010ae:	8b 40 08             	mov    0x8(%eax),%eax
  1010b1:	89 42 08             	mov    %eax,0x8(%edx)
  1010b4:	8b 45 08             	mov    0x8(%ebp),%eax
  1010b7:	0f b6 80 80 01 00 00 	movzbl 0x180(%eax),%eax
  1010be:	0f b6 c0             	movzbl %al,%eax
  1010c1:	8d 50 01             	lea    0x1(%eax),%edx
  1010c4:	89 d0                	mov    %edx,%eax
  1010c6:	c1 f8 1f             	sar    $0x1f,%eax
  1010c9:	c1 e8 1b             	shr    $0x1b,%eax
  1010cc:	01 c2                	add    %eax,%edx
  1010ce:	83 e2 1f             	and    $0x1f,%edx
  1010d1:	29 c2                	sub    %eax,%edx
  1010d3:	89 d0                	mov    %edx,%eax
  1010d5:	89 c2                	mov    %eax,%edx
  1010d7:	8b 45 08             	mov    0x8(%ebp),%eax
  1010da:	88 90 80 01 00 00    	mov    %dl,0x180(%eax)
  1010e0:	8b 45 08             	mov    0x8(%ebp),%eax
  1010e3:	0f b6 80 82 01 00 00 	movzbl 0x182(%eax),%eax
  1010ea:	8d 50 ff             	lea    -0x1(%eax),%edx
  1010ed:	8b 45 08             	mov    0x8(%ebp),%eax
  1010f0:	88 90 82 01 00 00    	mov    %dl,0x182(%eax)
  1010f6:	c7 45 f4 01 00 00 00 	movl   $0x1,-0xc(%ebp)
  1010fd:	8b 45 08             	mov    0x8(%ebp),%eax
  101100:	05 84 01 00 00       	add    $0x184,%eax
  101105:	83 ec 0c             	sub    $0xc,%esp
  101108:	50                   	push   %eax
  101109:	e8 4d a5 01 00       	call   11b65b <spinlock_unlock>
  10110e:	83 c4 10             	add    $0x10,%esp
  101111:	8b 45 f4             	mov    -0xc(%ebp),%eax
  101114:	8b 5d fc             	mov    -0x4(%ebp),%ebx
  101117:	c9                   	leave
  101118:	c3                   	ret

00101119 <irq_mailbox_peek>:
  101119:	55                   	push   %ebp
  10111a:	89 e5                	mov    %esp,%ebp
  10111c:	83 ec 18             	sub    $0x18,%esp
  10111f:	83 7d 08 00          	cmpl   $0x0,0x8(%ebp)
  101123:	75 07                	jne    10112c <irq_mailbox_peek+0x13>
  101125:	b8 00 00 00 00       	mov    $0x0,%eax
  10112a:	eb 3b                	jmp    101167 <irq_mailbox_peek+0x4e>
  10112c:	8b 45 08             	mov    0x8(%ebp),%eax
  10112f:	05 84 01 00 00       	add    $0x184,%eax
  101134:	83 ec 0c             	sub    $0xc,%esp
  101137:	50                   	push   %eax
  101138:	e8 e0 a4 01 00       	call   11b61d <spinlock_lock>
  10113d:	83 c4 10             	add    $0x10,%esp
  101140:	8b 45 08             	mov    0x8(%ebp),%eax
  101143:	0f b6 80 82 01 00 00 	movzbl 0x182(%eax),%eax
  10114a:	0f b6 c0             	movzbl %al,%eax
  10114d:	89 45 f4             	mov    %eax,-0xc(%ebp)
  101150:	8b 45 08             	mov    0x8(%ebp),%eax
  101153:	05 84 01 00 00       	add    $0x184,%eax
  101158:	83 ec 0c             	sub    $0xc,%esp
  10115b:	50                   	push   %eax
  10115c:	e8 fa a4 01 00       	call   11b65b <spinlock_unlock>
  101161:	83 c4 10             	add    $0x10,%esp
  101164:	8b 45 f4             	mov    -0xc(%ebp),%eax
  101167:	c9                   	leave
  101168:	c3                   	ret

00101169 <irq_mailbox_flush>:
  101169:	55                   	push   %ebp
  10116a:	89 e5                	mov    %esp,%ebp
  10116c:	83 ec 08             	sub    $0x8,%esp
  10116f:	83 7d 08 00          	cmpl   $0x0,0x8(%ebp)
  101173:	74 48                	je     1011bd <irq_mailbox_flush+0x54>
  101175:	8b 45 08             	mov    0x8(%ebp),%eax
  101178:	05 84 01 00 00       	add    $0x184,%eax
  10117d:	83 ec 0c             	sub    $0xc,%esp
  101180:	50                   	push   %eax
  101181:	e8 97 a4 01 00       	call   11b61d <spinlock_lock>
  101186:	83 c4 10             	add    $0x10,%esp
  101189:	8b 45 08             	mov    0x8(%ebp),%eax
  10118c:	c6 80 80 01 00 00 00 	movb   $0x0,0x180(%eax)
  101193:	8b 45 08             	mov    0x8(%ebp),%eax
  101196:	c6 80 81 01 00 00 00 	movb   $0x0,0x181(%eax)
  10119d:	8b 45 08             	mov    0x8(%ebp),%eax
  1011a0:	c6 80 82 01 00 00 00 	movb   $0x0,0x182(%eax)
  1011a7:	8b 45 08             	mov    0x8(%ebp),%eax
  1011aa:	05 84 01 00 00       	add    $0x184,%eax
  1011af:	83 ec 0c             	sub    $0xc,%esp
  1011b2:	50                   	push   %eax
  1011b3:	e8 a3 a4 01 00       	call   11b65b <spinlock_unlock>
  1011b8:	83 c4 10             	add    $0x10,%esp
  1011bb:	eb 01                	jmp    1011be <irq_mailbox_flush+0x55>
  1011bd:	90                   	nop
  1011be:	c9                   	leave
  1011bf:	c3                   	ret

001011c0 <irq_dispatch_event>:
  1011c0:	55                   	push   %ebp
  1011c1:	89 e5                	mov    %esp,%ebp
  1011c3:	83 ec 38             	sub    $0x38,%esp
  1011c6:	83 7d 08 00          	cmpl   $0x0,0x8(%ebp)
  1011ca:	0f 88 ca 00 00 00    	js     10129a <irq_dispatch_event+0xda>
  1011d0:	83 7d 08 0f          	cmpl   $0xf,0x8(%ebp)
  1011d4:	0f 8f c0 00 00 00    	jg     10129a <irq_dispatch_event+0xda>
  1011da:	c7 45 f4 00 00 00 00 	movl   $0x0,-0xc(%ebp)
  1011e1:	eb 0f                	jmp    1011f2 <irq_dispatch_event+0x32>
  1011e3:	8b 45 f4             	mov    -0xc(%ebp),%eax
  1011e6:	c7 44 85 dc 00 00 00 	movl   $0x0,-0x24(%ebp,%eax,4)
  1011ed:	00 
  1011ee:	83 45 f4 01          	addl   $0x1,-0xc(%ebp)
  1011f2:	83 7d f4 03          	cmpl   $0x3,-0xc(%ebp)
  1011f6:	76 eb                	jbe    1011e3 <irq_dispatch_event+0x23>
  1011f8:	83 ec 0c             	sub    $0xc,%esp
  1011fb:	68 e0 0b 13 00       	push   $0x130be0
  101200:	e8 18 a4 01 00       	call   11b61d <spinlock_lock>
  101205:	83 c4 10             	add    $0x10,%esp
  101208:	c7 45 f0 00 00 00 00 	movl   $0x0,-0x10(%ebp)
  10120f:	eb 28                	jmp    101239 <irq_dispatch_event+0x79>
  101211:	8b 55 08             	mov    0x8(%ebp),%edx
  101214:	89 d0                	mov    %edx,%eax
  101216:	01 c0                	add    %eax,%eax
  101218:	01 d0                	add    %edx,%eax
  10121a:	c1 e0 02             	shl    $0x2,%eax
  10121d:	01 d0                	add    %edx,%eax
  10121f:	8b 55 f0             	mov    -0x10(%ebp),%edx
  101222:	01 d0                	add    %edx,%eax
  101224:	83 c0 08             	add    $0x8,%eax
  101227:	8b 14 85 a4 08 13 00 	mov    0x1308a4(,%eax,4),%edx
  10122e:	8b 45 f0             	mov    -0x10(%ebp),%eax
  101231:	89 54 85 dc          	mov    %edx,-0x24(%ebp,%eax,4)
  101235:	83 45 f0 01          	addl   $0x1,-0x10(%ebp)
  101239:	83 7d f0 03          	cmpl   $0x3,-0x10(%ebp)
  10123d:	76 d2                	jbe    101211 <irq_dispatch_event+0x51>
  10123f:	83 ec 0c             	sub    $0xc,%esp
  101242:	68 e0 0b 13 00       	push   $0x130be0
  101247:	e8 0f a4 01 00       	call   11b65b <spinlock_unlock>
  10124c:	83 c4 10             	add    $0x10,%esp
  10124f:	8b 45 08             	mov    0x8(%ebp),%eax
  101252:	88 45 d0             	mov    %al,-0x30(%ebp)
  101255:	8b 45 0c             	mov    0xc(%ebp),%eax
  101258:	89 45 d4             	mov    %eax,-0x2c(%ebp)
  10125b:	e8 27 03 00 00       	call   101587 <get_ticks>
  101260:	89 45 d8             	mov    %eax,-0x28(%ebp)
  101263:	c7 45 ec 00 00 00 00 	movl   $0x0,-0x14(%ebp)
  10126a:	eb 26                	jmp    101292 <irq_dispatch_event+0xd2>
  10126c:	8b 45 ec             	mov    -0x14(%ebp),%eax
  10126f:	8b 44 85 dc          	mov    -0x24(%ebp,%eax,4),%eax
  101273:	85 c0                	test   %eax,%eax
  101275:	74 17                	je     10128e <irq_dispatch_event+0xce>
  101277:	8b 45 ec             	mov    -0x14(%ebp),%eax
  10127a:	8b 44 85 dc          	mov    -0x24(%ebp,%eax,4),%eax
  10127e:	83 ec 08             	sub    $0x8,%esp
  101281:	8d 55 d0             	lea    -0x30(%ebp),%edx
  101284:	52                   	push   %edx
  101285:	50                   	push   %eax
  101286:	e8 ad fc ff ff       	call   100f38 <mailbox_push>
  10128b:	83 c4 10             	add    $0x10,%esp
  10128e:	83 45 ec 01          	addl   $0x1,-0x14(%ebp)
  101292:	83 7d ec 03          	cmpl   $0x3,-0x14(%ebp)
  101296:	76 d4                	jbe    10126c <irq_dispatch_event+0xac>
  101298:	eb 01                	jmp    10129b <irq_dispatch_event+0xdb>
  10129a:	90                   	nop
  10129b:	c9                   	leave
  10129c:	c3                   	ret

0010129d <inb>:
  10129d:	55                   	push   %ebp
  10129e:	89 e5                	mov    %esp,%ebp
  1012a0:	83 ec 14             	sub    $0x14,%esp
  1012a3:	8b 45 08             	mov    0x8(%ebp),%eax
  1012a6:	66 89 45 ec          	mov    %ax,-0x14(%ebp)
  1012aa:	0f b7 45 ec          	movzwl -0x14(%ebp),%eax
  1012ae:	89 c2                	mov    %eax,%edx
  1012b0:	ec                   	in     (%dx),%al
  1012b1:	88 45 ff             	mov    %al,-0x1(%ebp)
  1012b4:	0f b6 45 ff          	movzbl -0x1(%ebp),%eax
  1012b8:	c9                   	leave
  1012b9:	c3                   	ret

001012ba <outb>:
  1012ba:	55                   	push   %ebp
  1012bb:	89 e5                	mov    %esp,%ebp
  1012bd:	83 ec 08             	sub    $0x8,%esp
  1012c0:	8b 55 08             	mov    0x8(%ebp),%edx
  1012c3:	8b 45 0c             	mov    0xc(%ebp),%eax
  1012c6:	66 89 55 fc          	mov    %dx,-0x4(%ebp)
  1012ca:	88 45 f8             	mov    %al,-0x8(%ebp)
  1012cd:	0f b6 45 f8          	movzbl -0x8(%ebp),%eax
  1012d1:	0f b7 55 fc          	movzwl -0x4(%ebp),%edx
  1012d5:	ee                   	out    %al,(%dx)
  1012d6:	90                   	nop
  1012d7:	c9                   	leave
  1012d8:	c3                   	ret

001012d9 <io_wait>:
  1012d9:	55                   	push   %ebp
  1012da:	89 e5                	mov    %esp,%ebp
  1012dc:	6a 00                	push   $0x0
  1012de:	68 80 00 00 00       	push   $0x80
  1012e3:	e8 d2 ff ff ff       	call   1012ba <outb>
  1012e8:	83 c4 08             	add    $0x8,%esp
  1012eb:	90                   	nop
  1012ec:	c9                   	leave
  1012ed:	c3                   	ret

001012ee <pic_remap>:
  1012ee:	55                   	push   %ebp
  1012ef:	89 e5                	mov    %esp,%ebp
  1012f1:	83 ec 18             	sub    $0x18,%esp
  1012f4:	8b 55 08             	mov    0x8(%ebp),%edx
  1012f7:	8b 45 0c             	mov    0xc(%ebp),%eax
  1012fa:	88 55 ec             	mov    %dl,-0x14(%ebp)
  1012fd:	88 45 e8             	mov    %al,-0x18(%ebp)
  101300:	6a 21                	push   $0x21
  101302:	e8 96 ff ff ff       	call   10129d <inb>
  101307:	83 c4 04             	add    $0x4,%esp
  10130a:	88 45 ff             	mov    %al,-0x1(%ebp)
  10130d:	68 a1 00 00 00       	push   $0xa1
  101312:	e8 86 ff ff ff       	call   10129d <inb>
  101317:	83 c4 04             	add    $0x4,%esp
  10131a:	88 45 fe             	mov    %al,-0x2(%ebp)
  10131d:	6a 11                	push   $0x11
  10131f:	6a 20                	push   $0x20
  101321:	e8 94 ff ff ff       	call   1012ba <outb>
  101326:	83 c4 08             	add    $0x8,%esp
  101329:	e8 ab ff ff ff       	call   1012d9 <io_wait>
  10132e:	6a 11                	push   $0x11
  101330:	68 a0 00 00 00       	push   $0xa0
  101335:	e8 80 ff ff ff       	call   1012ba <outb>
  10133a:	83 c4 08             	add    $0x8,%esp
  10133d:	e8 97 ff ff ff       	call   1012d9 <io_wait>
  101342:	0f b6 45 ec          	movzbl -0x14(%ebp),%eax
  101346:	50                   	push   %eax
  101347:	6a 21                	push   $0x21
  101349:	e8 6c ff ff ff       	call   1012ba <outb>
  10134e:	83 c4 08             	add    $0x8,%esp
  101351:	e8 83 ff ff ff       	call   1012d9 <io_wait>
  101356:	0f b6 45 e8          	movzbl -0x18(%ebp),%eax
  10135a:	50                   	push   %eax
  10135b:	68 a1 00 00 00       	push   $0xa1
  101360:	e8 55 ff ff ff       	call   1012ba <outb>
  101365:	83 c4 08             	add    $0x8,%esp
  101368:	e8 6c ff ff ff       	call   1012d9 <io_wait>
  10136d:	6a 04                	push   $0x4
  10136f:	6a 21                	push   $0x21
  101371:	e8 44 ff ff ff       	call   1012ba <outb>
  101376:	83 c4 08             	add    $0x8,%esp
  101379:	e8 5b ff ff ff       	call   1012d9 <io_wait>
  10137e:	6a 02                	push   $0x2
  101380:	68 a1 00 00 00       	push   $0xa1
  101385:	e8 30 ff ff ff       	call   1012ba <outb>
  10138a:	83 c4 08             	add    $0x8,%esp
  10138d:	e8 47 ff ff ff       	call   1012d9 <io_wait>
  101392:	6a 01                	push   $0x1
  101394:	6a 21                	push   $0x21
  101396:	e8 1f ff ff ff       	call   1012ba <outb>
  10139b:	83 c4 08             	add    $0x8,%esp
  10139e:	e8 36 ff ff ff       	call   1012d9 <io_wait>
  1013a3:	6a 01                	push   $0x1
  1013a5:	68 a1 00 00 00       	push   $0xa1
  1013aa:	e8 0b ff ff ff       	call   1012ba <outb>
  1013af:	83 c4 08             	add    $0x8,%esp
  1013b2:	e8 22 ff ff ff       	call   1012d9 <io_wait>
  1013b7:	0f b6 45 ff          	movzbl -0x1(%ebp),%eax
  1013bb:	50                   	push   %eax
  1013bc:	6a 21                	push   $0x21
  1013be:	e8 f7 fe ff ff       	call   1012ba <outb>
  1013c3:	83 c4 08             	add    $0x8,%esp
  1013c6:	0f b6 45 fe          	movzbl -0x2(%ebp),%eax
  1013ca:	50                   	push   %eax
  1013cb:	68 a1 00 00 00       	push   $0xa1
  1013d0:	e8 e5 fe ff ff       	call   1012ba <outb>
  1013d5:	83 c4 08             	add    $0x8,%esp
  1013d8:	90                   	nop
  1013d9:	c9                   	leave
  1013da:	c3                   	ret

001013db <pic_apply_mask>:
  1013db:	55                   	push   %ebp
  1013dc:	89 e5                	mov    %esp,%ebp
  1013de:	0f b7 05 80 e0 12 00 	movzwl 0x12e080,%eax
  1013e5:	0f b6 c0             	movzbl %al,%eax
  1013e8:	50                   	push   %eax
  1013e9:	6a 21                	push   $0x21
  1013eb:	e8 ca fe ff ff       	call   1012ba <outb>
  1013f0:	83 c4 08             	add    $0x8,%esp
  1013f3:	0f b7 05 80 e0 12 00 	movzwl 0x12e080,%eax
  1013fa:	66 c1 e8 08          	shr    $0x8,%ax
  1013fe:	0f b6 c0             	movzbl %al,%eax
  101401:	50                   	push   %eax
  101402:	68 a1 00 00 00       	push   $0xa1
  101407:	e8 ae fe ff ff       	call   1012ba <outb>
  10140c:	83 c4 08             	add    $0x8,%esp
  10140f:	90                   	nop
  101410:	c9                   	leave
  101411:	c3                   	ret

00101412 <pic_init>:
  101412:	55                   	push   %ebp
  101413:	89 e5                	mov    %esp,%ebp
  101415:	6a 28                	push   $0x28
  101417:	6a 20                	push   $0x20
  101419:	e8 d0 fe ff ff       	call   1012ee <pic_remap>
  10141e:	83 c4 08             	add    $0x8,%esp
  101421:	66 c7 05 80 e0 12 00 	movw   $0xffff,0x12e080
  101428:	ff ff 
  10142a:	e8 ac ff ff ff       	call   1013db <pic_apply_mask>
  10142f:	90                   	nop
  101430:	c9                   	leave
  101431:	c3                   	ret

00101432 <pic_send_eoi>:
  101432:	55                   	push   %ebp
  101433:	89 e5                	mov    %esp,%ebp
  101435:	83 ec 04             	sub    $0x4,%esp
  101438:	8b 45 08             	mov    0x8(%ebp),%eax
  10143b:	88 45 fc             	mov    %al,-0x4(%ebp)
  10143e:	80 7d fc 07          	cmpb   $0x7,-0x4(%ebp)
  101442:	76 0f                	jbe    101453 <pic_send_eoi+0x21>
  101444:	6a 20                	push   $0x20
  101446:	68 a0 00 00 00       	push   $0xa0
  10144b:	e8 6a fe ff ff       	call   1012ba <outb>
  101450:	83 c4 08             	add    $0x8,%esp
  101453:	6a 20                	push   $0x20
  101455:	6a 20                	push   $0x20
  101457:	e8 5e fe ff ff       	call   1012ba <outb>
  10145c:	83 c4 08             	add    $0x8,%esp
  10145f:	90                   	nop
  101460:	c9                   	leave
  101461:	c3                   	ret

00101462 <pic_clear_mask>:
  101462:	55                   	push   %ebp
  101463:	89 e5                	mov    %esp,%ebp
  101465:	83 ec 04             	sub    $0x4,%esp
  101468:	8b 45 08             	mov    0x8(%ebp),%eax
  10146b:	88 45 fc             	mov    %al,-0x4(%ebp)
  10146e:	0f b6 45 fc          	movzbl -0x4(%ebp),%eax
  101472:	ba 01 00 00 00       	mov    $0x1,%edx
  101477:	89 c1                	mov    %eax,%ecx
  101479:	d3 e2                	shl    %cl,%edx
  10147b:	89 d0                	mov    %edx,%eax
  10147d:	f7 d0                	not    %eax
  10147f:	89 c2                	mov    %eax,%edx
  101481:	0f b7 05 80 e0 12 00 	movzwl 0x12e080,%eax
  101488:	21 d0                	and    %edx,%eax
  10148a:	66 a3 80 e0 12 00    	mov    %ax,0x12e080
  101490:	e8 46 ff ff ff       	call   1013db <pic_apply_mask>
  101495:	90                   	nop
  101496:	c9                   	leave
  101497:	c3                   	ret

00101498 <pic_set_mask>:
  101498:	55                   	push   %ebp
  101499:	89 e5                	mov    %esp,%ebp
  10149b:	83 ec 04             	sub    $0x4,%esp
  10149e:	8b 45 08             	mov    0x8(%ebp),%eax
  1014a1:	88 45 fc             	mov    %al,-0x4(%ebp)
  1014a4:	0f b6 45 fc          	movzbl -0x4(%ebp),%eax
  1014a8:	ba 01 00 00 00       	mov    $0x1,%edx
  1014ad:	89 c1                	mov    %eax,%ecx
  1014af:	d3 e2                	shl    %cl,%edx
  1014b1:	89 d0                	mov    %edx,%eax
  1014b3:	89 c2                	mov    %eax,%edx
  1014b5:	0f b7 05 80 e0 12 00 	movzwl 0x12e080,%eax
  1014bc:	09 d0                	or     %edx,%eax
  1014be:	66 a3 80 e0 12 00    	mov    %ax,0x12e080
  1014c4:	e8 12 ff ff ff       	call   1013db <pic_apply_mask>
  1014c9:	90                   	nop
  1014ca:	c9                   	leave
  1014cb:	c3                   	ret

001014cc <outb>:
  1014cc:	55                   	push   %ebp
  1014cd:	89 e5                	mov    %esp,%ebp
  1014cf:	83 ec 08             	sub    $0x8,%esp
  1014d2:	8b 55 08             	mov    0x8(%ebp),%edx
  1014d5:	8b 45 0c             	mov    0xc(%ebp),%eax
  1014d8:	66 89 55 fc          	mov    %dx,-0x4(%ebp)
  1014dc:	88 45 f8             	mov    %al,-0x8(%ebp)
  1014df:	0f b6 45 f8          	movzbl -0x8(%ebp),%eax
  1014e3:	0f b7 55 fc          	movzwl -0x4(%ebp),%edx
  1014e7:	ee                   	out    %al,(%dx)
  1014e8:	90                   	nop
  1014e9:	c9                   	leave
  1014ea:	c3                   	ret

001014eb <pit_irq_handler>:
  1014eb:	55                   	push   %ebp
  1014ec:	89 e5                	mov    %esp,%ebp
  1014ee:	83 ec 08             	sub    $0x8,%esp
  1014f1:	a1 e8 0b 13 00       	mov    0x130be8,%eax
  1014f6:	8b 15 ec 0b 13 00    	mov    0x130bec,%edx
  1014fc:	83 c0 01             	add    $0x1,%eax
  1014ff:	83 d2 00             	adc    $0x0,%edx
  101502:	a3 e8 0b 13 00       	mov    %eax,0x130be8
  101507:	89 15 ec 0b 13 00    	mov    %edx,0x130bec
  10150d:	e8 1c 45 00 00       	call   105a2e <process_scheduler_tick>
  101512:	90                   	nop
  101513:	c9                   	leave
  101514:	c3                   	ret

00101515 <pit_init>:
  101515:	55                   	push   %ebp
  101516:	89 e5                	mov    %esp,%ebp
  101518:	83 ec 18             	sub    $0x18,%esp
  10151b:	83 7d 08 00          	cmpl   $0x0,0x8(%ebp)
  10151f:	75 07                	jne    101528 <pit_init+0x13>
  101521:	c7 45 08 64 00 00 00 	movl   $0x64,0x8(%ebp)
  101528:	b8 dc 34 12 00       	mov    $0x1234dc,%eax
  10152d:	ba 00 00 00 00       	mov    $0x0,%edx
  101532:	f7 75 08             	divl   0x8(%ebp)
  101535:	89 45 f4             	mov    %eax,-0xc(%ebp)
  101538:	83 ec 08             	sub    $0x8,%esp
  10153b:	68 eb 14 10 00       	push   $0x1014eb
  101540:	6a 00                	push   $0x0
  101542:	e8 5e f5 ff ff       	call   100aa5 <irq_install_handler>
  101547:	83 c4 10             	add    $0x10,%esp
  10154a:	83 ec 08             	sub    $0x8,%esp
  10154d:	6a 36                	push   $0x36
  10154f:	6a 43                	push   $0x43
  101551:	e8 76 ff ff ff       	call   1014cc <outb>
  101556:	83 c4 10             	add    $0x10,%esp
  101559:	8b 45 f4             	mov    -0xc(%ebp),%eax
  10155c:	0f b6 c0             	movzbl %al,%eax
  10155f:	83 ec 08             	sub    $0x8,%esp
  101562:	50                   	push   %eax
  101563:	6a 40                	push   $0x40
  101565:	e8 62 ff ff ff       	call   1014cc <outb>
  10156a:	83 c4 10             	add    $0x10,%esp
  10156d:	8b 45 f4             	mov    -0xc(%ebp),%eax
  101570:	c1 e8 08             	shr    $0x8,%eax
  101573:	0f b6 c0             	movzbl %al,%eax
  101576:	83 ec 08             	sub    $0x8,%esp
  101579:	50                   	push   %eax
  10157a:	6a 40                	push   $0x40
  10157c:	e8 4b ff ff ff       	call   1014cc <outb>
  101581:	83 c4 10             	add    $0x10,%esp
  101584:	90                   	nop
  101585:	c9                   	leave
  101586:	c3                   	ret

00101587 <get_ticks>:
  101587:	55                   	push   %ebp
  101588:	89 e5                	mov    %esp,%ebp
  10158a:	a1 e8 0b 13 00       	mov    0x130be8,%eax
  10158f:	8b 15 ec 0b 13 00    	mov    0x130bec,%edx
  101595:	5d                   	pop    %ebp
  101596:	c3                   	ret

00101597 <buffer_copy>:
  101597:	55                   	push   %ebp
  101598:	89 e5                	mov    %esp,%ebp
  10159a:	83 ec 10             	sub    $0x10,%esp
  10159d:	83 7d 08 00          	cmpl   $0x0,0x8(%ebp)
  1015a1:	74 38                	je     1015db <buffer_copy+0x44>
  1015a3:	83 7d 0c 00          	cmpl   $0x0,0xc(%ebp)
  1015a7:	74 32                	je     1015db <buffer_copy+0x44>
  1015a9:	83 7d 10 00          	cmpl   $0x0,0x10(%ebp)
  1015ad:	74 2c                	je     1015db <buffer_copy+0x44>
  1015af:	c7 45 fc 00 00 00 00 	movl   $0x0,-0x4(%ebp)
  1015b6:	eb 19                	jmp    1015d1 <buffer_copy+0x3a>
  1015b8:	8b 55 0c             	mov    0xc(%ebp),%edx
  1015bb:	8b 45 fc             	mov    -0x4(%ebp),%eax
  1015be:	01 d0                	add    %edx,%eax
  1015c0:	8b 4d 08             	mov    0x8(%ebp),%ecx
  1015c3:	8b 55 fc             	mov    -0x4(%ebp),%edx
  1015c6:	01 ca                	add    %ecx,%edx
  1015c8:	0f b6 00             	movzbl (%eax),%eax
  1015cb:	88 02                	mov    %al,(%edx)
  1015cd:	83 45 fc 01          	addl   $0x1,-0x4(%ebp)
  1015d1:	8b 45 fc             	mov    -0x4(%ebp),%eax
  1015d4:	3b 45 10             	cmp    0x10(%ebp),%eax
  1015d7:	72 df                	jb     1015b8 <buffer_copy+0x21>
  1015d9:	eb 01                	jmp    1015dc <buffer_copy+0x45>
  1015db:	90                   	nop
  1015dc:	c9                   	leave
  1015dd:	c3                   	ret

001015de <mailbox_init>:
  1015de:	55                   	push   %ebp
  1015df:	89 e5                	mov    %esp,%ebp
  1015e1:	83 ec 18             	sub    $0x18,%esp
  1015e4:	83 7d 08 00          	cmpl   $0x0,0x8(%ebp)
  1015e8:	0f 84 b8 00 00 00    	je     1016a6 <mailbox_init+0xc8>
  1015ee:	8b 45 08             	mov    0x8(%ebp),%eax
  1015f1:	83 ec 0c             	sub    $0xc,%esp
  1015f4:	50                   	push   %eax
  1015f5:	e8 0c a0 01 00       	call   11b606 <spinlock_init>
  1015fa:	83 c4 10             	add    $0x10,%esp
  1015fd:	8b 45 08             	mov    0x8(%ebp),%eax
  101600:	c6 80 04 11 00 00 00 	movb   $0x0,0x1104(%eax)
  101607:	8b 45 08             	mov    0x8(%ebp),%eax
  10160a:	c6 80 28 11 00 00 00 	movb   $0x0,0x1128(%eax)
  101611:	c7 45 f4 00 00 00 00 	movl   $0x0,-0xc(%ebp)
  101618:	eb 5d                	jmp    101677 <mailbox_init+0x99>
  10161a:	8b 55 08             	mov    0x8(%ebp),%edx
  10161d:	8b 45 f4             	mov    -0xc(%ebp),%eax
  101620:	69 c0 10 01 00 00    	imul   $0x110,%eax,%eax
  101626:	01 d0                	add    %edx,%eax
  101628:	83 c0 04             	add    $0x4,%eax
  10162b:	c6 00 00             	movb   $0x0,(%eax)
  10162e:	8b 55 08             	mov    0x8(%ebp),%edx
  101631:	8b 45 f4             	mov    -0xc(%ebp),%eax
  101634:	69 c0 10 01 00 00    	imul   $0x110,%eax,%eax
  10163a:	01 d0                	add    %edx,%eax
  10163c:	83 c0 08             	add    $0x8,%eax
  10163f:	c7 00 00 00 00 00    	movl   $0x0,(%eax)
  101645:	8b 55 08             	mov    0x8(%ebp),%edx
  101648:	8b 45 f4             	mov    -0xc(%ebp),%eax
  10164b:	69 c0 10 01 00 00    	imul   $0x110,%eax,%eax
  101651:	01 d0                	add    %edx,%eax
  101653:	83 c0 0c             	add    $0xc,%eax
  101656:	c7 00 00 00 00 00    	movl   $0x0,(%eax)
  10165c:	8b 55 08             	mov    0x8(%ebp),%edx
  10165f:	8b 45 f4             	mov    -0xc(%ebp),%eax
  101662:	69 c0 10 01 00 00    	imul   $0x110,%eax,%eax
  101668:	01 d0                	add    %edx,%eax
  10166a:	83 c0 10             	add    $0x10,%eax
  10166d:	c7 00 00 00 00 00    	movl   $0x0,(%eax)
  101673:	83 45 f4 01          	addl   $0x1,-0xc(%ebp)
  101677:	83 7d f4 0f          	cmpl   $0xf,-0xc(%ebp)
  10167b:	76 9d                	jbe    10161a <mailbox_init+0x3c>
  10167d:	c7 45 f0 00 00 00 00 	movl   $0x0,-0x10(%ebp)
  101684:	eb 18                	jmp    10169e <mailbox_init+0xc0>
  101686:	8b 45 08             	mov    0x8(%ebp),%eax
  101689:	8b 55 f0             	mov    -0x10(%ebp),%edx
  10168c:	81 c2 40 04 00 00    	add    $0x440,%edx
  101692:	c7 44 90 08 ff ff ff 	movl   $0xffffffff,0x8(%eax,%edx,4)
  101699:	ff 
  10169a:	83 45 f0 01          	addl   $0x1,-0x10(%ebp)
  10169e:	83 7d f0 07          	cmpl   $0x7,-0x10(%ebp)
  1016a2:	76 e2                	jbe    101686 <mailbox_init+0xa8>
  1016a4:	eb 01                	jmp    1016a7 <mailbox_init+0xc9>
  1016a6:	90                   	nop
  1016a7:	c9                   	leave
  1016a8:	c3                   	ret

001016a9 <mailbox_clear>:
  1016a9:	55                   	push   %ebp
  1016aa:	89 e5                	mov    %esp,%ebp
  1016ac:	83 ec 18             	sub    $0x18,%esp
  1016af:	83 7d 08 00          	cmpl   $0x0,0x8(%ebp)
  1016b3:	0f 84 cf 00 00 00    	je     101788 <mailbox_clear+0xdf>
  1016b9:	8b 45 08             	mov    0x8(%ebp),%eax
  1016bc:	83 ec 08             	sub    $0x8,%esp
  1016bf:	8d 55 ec             	lea    -0x14(%ebp),%edx
  1016c2:	52                   	push   %edx
  1016c3:	50                   	push   %eax
  1016c4:	e8 ac 9f 01 00       	call   11b675 <spinlock_lock_irqsave>
  1016c9:	83 c4 10             	add    $0x10,%esp
  1016cc:	8b 45 08             	mov    0x8(%ebp),%eax
  1016cf:	c6 80 04 11 00 00 00 	movb   $0x0,0x1104(%eax)
  1016d6:	8b 45 08             	mov    0x8(%ebp),%eax
  1016d9:	c6 80 28 11 00 00 00 	movb   $0x0,0x1128(%eax)
  1016e0:	c7 45 f4 00 00 00 00 	movl   $0x0,-0xc(%ebp)
  1016e7:	eb 5d                	jmp    101746 <mailbox_clear+0x9d>
  1016e9:	8b 55 08             	mov    0x8(%ebp),%edx
  1016ec:	8b 45 f4             	mov    -0xc(%ebp),%eax
  1016ef:	69 c0 10 01 00 00    	imul   $0x110,%eax,%eax
  1016f5:	01 d0                	add    %edx,%eax
  1016f7:	83 c0 04             	add    $0x4,%eax
  1016fa:	c6 00 00             	movb   $0x0,(%eax)
  1016fd:	8b 55 08             	mov    0x8(%ebp),%edx
  101700:	8b 45 f4             	mov    -0xc(%ebp),%eax
  101703:	69 c0 10 01 00 00    	imul   $0x110,%eax,%eax
  101709:	01 d0                	add    %edx,%eax
  10170b:	83 c0 08             	add    $0x8,%eax
  10170e:	c7 00 00 00 00 00    	movl   $0x0,(%eax)
  101714:	8b 55 08             	mov    0x8(%ebp),%edx
  101717:	8b 45 f4             	mov    -0xc(%ebp),%eax
  10171a:	69 c0 10 01 00 00    	imul   $0x110,%eax,%eax
  101720:	01 d0                	add    %edx,%eax
  101722:	83 c0 0c             	add    $0xc,%eax
  101725:	c7 00 00 00 00 00    	movl   $0x0,(%eax)
  10172b:	8b 55 08             	mov    0x8(%ebp),%edx
  10172e:	8b 45 f4             	mov    -0xc(%ebp),%eax
  101731:	69 c0 10 01 00 00    	imul   $0x110,%eax,%eax
  101737:	01 d0                	add    %edx,%eax
  101739:	83 c0 10             	add    $0x10,%eax
  10173c:	c7 00 00 00 00 00    	movl   $0x0,(%eax)
  101742:	83 45 f4 01          	addl   $0x1,-0xc(%ebp)
  101746:	83 7d f4 0f          	cmpl   $0xf,-0xc(%ebp)
  10174a:	76 9d                	jbe    1016e9 <mailbox_clear+0x40>
  10174c:	c7 45 f0 00 00 00 00 	movl   $0x0,-0x10(%ebp)
  101753:	eb 18                	jmp    10176d <mailbox_clear+0xc4>
  101755:	8b 45 08             	mov    0x8(%ebp),%eax
  101758:	8b 55 f0             	mov    -0x10(%ebp),%edx
  10175b:	81 c2 40 04 00 00    	add    $0x440,%edx
  101761:	c7 44 90 08 ff ff ff 	movl   $0xffffffff,0x8(%eax,%edx,4)
  101768:	ff 
  101769:	83 45 f0 01          	addl   $0x1,-0x10(%ebp)
  10176d:	83 7d f0 07          	cmpl   $0x7,-0x10(%ebp)
  101771:	76 e2                	jbe    101755 <mailbox_clear+0xac>
  101773:	8b 55 ec             	mov    -0x14(%ebp),%edx
  101776:	8b 45 08             	mov    0x8(%ebp),%eax
  101779:	83 ec 08             	sub    $0x8,%esp
  10177c:	52                   	push   %edx
  10177d:	50                   	push   %eax
  10177e:	e8 22 9f 01 00       	call   11b6a5 <spinlock_unlock_irqrestore>
  101783:	83 c4 10             	add    $0x10,%esp
  101786:	eb 01                	jmp    101789 <mailbox_clear+0xe0>
  101788:	90                   	nop
  101789:	c9                   	leave
  10178a:	c3                   	ret

0010178b <mailbox_push_waiter>:
  10178b:	55                   	push   %ebp
  10178c:	89 e5                	mov    %esp,%ebp
  10178e:	83 ec 10             	sub    $0x10,%esp
  101791:	83 7d 08 00          	cmpl   $0x0,0x8(%ebp)
  101795:	74 06                	je     10179d <mailbox_push_waiter+0x12>
  101797:	83 7d 0c 00          	cmpl   $0x0,0xc(%ebp)
  10179b:	7f 07                	jg     1017a4 <mailbox_push_waiter+0x19>
  10179d:	b8 00 00 00 00       	mov    $0x0,%eax
  1017a2:	eb 79                	jmp    10181d <mailbox_push_waiter+0x92>
  1017a4:	c6 45 ff 00          	movb   $0x0,-0x1(%ebp)
  1017a8:	eb 21                	jmp    1017cb <mailbox_push_waiter+0x40>
  1017aa:	0f b6 55 ff          	movzbl -0x1(%ebp),%edx
  1017ae:	8b 45 08             	mov    0x8(%ebp),%eax
  1017b1:	81 c2 40 04 00 00    	add    $0x440,%edx
  1017b7:	8b 44 90 08          	mov    0x8(%eax,%edx,4),%eax
  1017bb:	39 45 0c             	cmp    %eax,0xc(%ebp)
  1017be:	75 07                	jne    1017c7 <mailbox_push_waiter+0x3c>
  1017c0:	b8 01 00 00 00       	mov    $0x1,%eax
  1017c5:	eb 56                	jmp    10181d <mailbox_push_waiter+0x92>
  1017c7:	80 45 ff 01          	addb   $0x1,-0x1(%ebp)
  1017cb:	8b 45 08             	mov    0x8(%ebp),%eax
  1017ce:	0f b6 80 28 11 00 00 	movzbl 0x1128(%eax),%eax
  1017d5:	38 45 ff             	cmp    %al,-0x1(%ebp)
  1017d8:	72 d0                	jb     1017aa <mailbox_push_waiter+0x1f>
  1017da:	8b 45 08             	mov    0x8(%ebp),%eax
  1017dd:	0f b6 80 28 11 00 00 	movzbl 0x1128(%eax),%eax
  1017e4:	3c 07                	cmp    $0x7,%al
  1017e6:	76 07                	jbe    1017ef <mailbox_push_waiter+0x64>
  1017e8:	b8 00 00 00 00       	mov    $0x0,%eax
  1017ed:	eb 2e                	jmp    10181d <mailbox_push_waiter+0x92>
  1017ef:	8b 45 08             	mov    0x8(%ebp),%eax
  1017f2:	0f b6 80 28 11 00 00 	movzbl 0x1128(%eax),%eax
  1017f9:	8d 50 01             	lea    0x1(%eax),%edx
  1017fc:	8b 4d 08             	mov    0x8(%ebp),%ecx
  1017ff:	88 91 28 11 00 00    	mov    %dl,0x1128(%ecx)
  101805:	0f b6 d0             	movzbl %al,%edx
  101808:	8b 45 08             	mov    0x8(%ebp),%eax
  10180b:	8d 8a 40 04 00 00    	lea    0x440(%edx),%ecx
  101811:	8b 55 0c             	mov    0xc(%ebp),%edx
  101814:	89 54 88 08          	mov    %edx,0x8(%eax,%ecx,4)
  101818:	b8 01 00 00 00       	mov    $0x1,%eax
  10181d:	c9                   	leave
  10181e:	c3                   	ret

0010181f <mailbox_pop_waiter>:
  10181f:	55                   	push   %ebp
  101820:	89 e5                	mov    %esp,%ebp
  101822:	83 ec 10             	sub    $0x10,%esp
  101825:	83 7d 08 00          	cmpl   $0x0,0x8(%ebp)
  101829:	74 0e                	je     101839 <mailbox_pop_waiter+0x1a>
  10182b:	8b 45 08             	mov    0x8(%ebp),%eax
  10182e:	0f b6 80 28 11 00 00 	movzbl 0x1128(%eax),%eax
  101835:	84 c0                	test   %al,%al
  101837:	75 0a                	jne    101843 <mailbox_pop_waiter+0x24>
  101839:	b8 ff ff ff ff       	mov    $0xffffffff,%eax
  10183e:	e9 84 00 00 00       	jmp    1018c7 <mailbox_pop_waiter+0xa8>
  101843:	8b 45 08             	mov    0x8(%ebp),%eax
  101846:	8b 80 08 11 00 00    	mov    0x1108(%eax),%eax
  10184c:	89 45 f8             	mov    %eax,-0x8(%ebp)
  10184f:	c6 45 ff 01          	movb   $0x1,-0x1(%ebp)
  101853:	eb 29                	jmp    10187e <mailbox_pop_waiter+0x5f>
  101855:	0f b6 55 ff          	movzbl -0x1(%ebp),%edx
  101859:	0f b6 45 ff          	movzbl -0x1(%ebp),%eax
  10185d:	8d 48 ff             	lea    -0x1(%eax),%ecx
  101860:	8b 45 08             	mov    0x8(%ebp),%eax
  101863:	81 c2 40 04 00 00    	add    $0x440,%edx
  101869:	8b 54 90 08          	mov    0x8(%eax,%edx,4),%edx
  10186d:	8b 45 08             	mov    0x8(%ebp),%eax
  101870:	81 c1 40 04 00 00    	add    $0x440,%ecx
  101876:	89 54 88 08          	mov    %edx,0x8(%eax,%ecx,4)
  10187a:	80 45 ff 01          	addb   $0x1,-0x1(%ebp)
  10187e:	8b 45 08             	mov    0x8(%ebp),%eax
  101881:	0f b6 80 28 11 00 00 	movzbl 0x1128(%eax),%eax
  101888:	38 45 ff             	cmp    %al,-0x1(%ebp)
  10188b:	72 c8                	jb     101855 <mailbox_pop_waiter+0x36>
  10188d:	8b 45 08             	mov    0x8(%ebp),%eax
  101890:	0f b6 80 28 11 00 00 	movzbl 0x1128(%eax),%eax
  101897:	0f b6 c0             	movzbl %al,%eax
  10189a:	8d 50 ff             	lea    -0x1(%eax),%edx
  10189d:	8b 45 08             	mov    0x8(%ebp),%eax
  1018a0:	81 c2 40 04 00 00    	add    $0x440,%edx
  1018a6:	c7 44 90 08 ff ff ff 	movl   $0xffffffff,0x8(%eax,%edx,4)
  1018ad:	ff 
  1018ae:	8b 45 08             	mov    0x8(%ebp),%eax
  1018b1:	0f b6 80 28 11 00 00 	movzbl 0x1128(%eax),%eax
  1018b8:	8d 50 ff             	lea    -0x1(%eax),%edx
  1018bb:	8b 45 08             	mov    0x8(%ebp),%eax
  1018be:	88 90 28 11 00 00    	mov    %dl,0x1128(%eax)
  1018c4:	8b 45 f8             	mov    -0x8(%ebp),%eax
  1018c7:	c9                   	leave
  1018c8:	c3                   	ret

001018c9 <mailbox_try_dequeue>:
  1018c9:	55                   	push   %ebp
  1018ca:	89 e5                	mov    %esp,%ebp
  1018cc:	57                   	push   %edi
  1018cd:	56                   	push   %esi
  1018ce:	53                   	push   %ebx
  1018cf:	83 ec 2c             	sub    $0x2c,%esp
  1018d2:	83 7d 08 00          	cmpl   $0x0,0x8(%ebp)
  1018d6:	74 06                	je     1018de <mailbox_try_dequeue+0x15>
  1018d8:	83 7d 10 00          	cmpl   $0x0,0x10(%ebp)
  1018dc:	75 0a                	jne    1018e8 <mailbox_try_dequeue+0x1f>
  1018de:	b8 00 00 00 00       	mov    $0x0,%eax
  1018e3:	e9 bb 01 00 00       	jmp    101aa3 <mailbox_try_dequeue+0x1da>
  1018e8:	8b 45 08             	mov    0x8(%ebp),%eax
  1018eb:	05 64 10 00 00       	add    $0x1064,%eax
  1018f0:	89 45 dc             	mov    %eax,-0x24(%ebp)
  1018f3:	8b 45 dc             	mov    -0x24(%ebp),%eax
  1018f6:	83 ec 08             	sub    $0x8,%esp
  1018f9:	8d 55 d4             	lea    -0x2c(%ebp),%edx
  1018fc:	52                   	push   %edx
  1018fd:	50                   	push   %eax
  1018fe:	e8 72 9d 01 00       	call   11b675 <spinlock_lock_irqsave>
  101903:	83 c4 10             	add    $0x10,%esp
  101906:	c7 45 e4 ff ff ff ff 	movl   $0xffffffff,-0x1c(%ebp)
  10190d:	c6 45 e3 00          	movb   $0x0,-0x1d(%ebp)
  101911:	eb 41                	jmp    101954 <mailbox_try_dequeue+0x8b>
  101913:	0f b6 45 e3          	movzbl -0x1d(%ebp),%eax
  101917:	69 d0 10 01 00 00    	imul   $0x110,%eax,%edx
  10191d:	8b 45 dc             	mov    -0x24(%ebp),%eax
  101920:	01 d0                	add    %edx,%eax
  101922:	83 c0 04             	add    $0x4,%eax
  101925:	89 45 d8             	mov    %eax,-0x28(%ebp)
  101928:	8b 45 d8             	mov    -0x28(%ebp),%eax
  10192b:	0f b6 00             	movzbl (%eax),%eax
  10192e:	84 c0                	test   %al,%al
  101930:	74 1a                	je     10194c <mailbox_try_dequeue+0x83>
  101932:	83 7d 0c ff          	cmpl   $0xffffffff,0xc(%ebp)
  101936:	74 0b                	je     101943 <mailbox_try_dequeue+0x7a>
  101938:	8b 45 d8             	mov    -0x28(%ebp),%eax
  10193b:	8b 40 04             	mov    0x4(%eax),%eax
  10193e:	39 45 0c             	cmp    %eax,0xc(%ebp)
  101941:	75 0c                	jne    10194f <mailbox_try_dequeue+0x86>
  101943:	0f b6 45 e3          	movzbl -0x1d(%ebp),%eax
  101947:	89 45 e4             	mov    %eax,-0x1c(%ebp)
  10194a:	eb 17                	jmp    101963 <mailbox_try_dequeue+0x9a>
  10194c:	90                   	nop
  10194d:	eb 01                	jmp    101950 <mailbox_try_dequeue+0x87>
  10194f:	90                   	nop
  101950:	80 45 e3 01          	addb   $0x1,-0x1d(%ebp)
  101954:	8b 45 dc             	mov    -0x24(%ebp),%eax
  101957:	0f b6 80 04 11 00 00 	movzbl 0x1104(%eax),%eax
  10195e:	38 45 e3             	cmp    %al,-0x1d(%ebp)
  101961:	72 b0                	jb     101913 <mailbox_try_dequeue+0x4a>
  101963:	83 7d e4 00          	cmpl   $0x0,-0x1c(%ebp)
  101967:	0f 88 18 01 00 00    	js     101a85 <mailbox_try_dequeue+0x1bc>
  10196d:	8b 45 10             	mov    0x10(%ebp),%eax
  101970:	8b 4d dc             	mov    -0x24(%ebp),%ecx
  101973:	8b 55 e4             	mov    -0x1c(%ebp),%edx
  101976:	69 d2 10 01 00 00    	imul   $0x110,%edx,%edx
  10197c:	01 ca                	add    %ecx,%edx
  10197e:	89 c3                	mov    %eax,%ebx
  101980:	8d 42 04             	lea    0x4(%edx),%eax
  101983:	ba 44 00 00 00       	mov    $0x44,%edx
  101988:	89 df                	mov    %ebx,%edi
  10198a:	89 c6                	mov    %eax,%esi
  10198c:	89 d1                	mov    %edx,%ecx
  10198e:	f3 a5                	rep movsl %ds:(%esi),%es:(%edi)
  101990:	8b 45 e4             	mov    -0x1c(%ebp),%eax
  101993:	83 c0 01             	add    $0x1,%eax
  101996:	88 45 e2             	mov    %al,-0x1e(%ebp)
  101999:	eb 36                	jmp    1019d1 <mailbox_try_dequeue+0x108>
  10199b:	0f b6 45 e2          	movzbl -0x1e(%ebp),%eax
  10199f:	0f b6 55 e2          	movzbl -0x1e(%ebp),%edx
  1019a3:	83 ea 01             	sub    $0x1,%edx
  1019a6:	8b 4d dc             	mov    -0x24(%ebp),%ecx
  1019a9:	69 d2 10 01 00 00    	imul   $0x110,%edx,%edx
  1019af:	01 d1                	add    %edx,%ecx
  1019b1:	8b 55 dc             	mov    -0x24(%ebp),%edx
  1019b4:	69 c0 10 01 00 00    	imul   $0x110,%eax,%eax
  1019ba:	01 c2                	add    %eax,%edx
  1019bc:	8d 41 04             	lea    0x4(%ecx),%eax
  1019bf:	83 c2 04             	add    $0x4,%edx
  1019c2:	b9 44 00 00 00       	mov    $0x44,%ecx
  1019c7:	89 c7                	mov    %eax,%edi
  1019c9:	89 d6                	mov    %edx,%esi
  1019cb:	f3 a5                	rep movsl %ds:(%esi),%es:(%edi)
  1019cd:	80 45 e2 01          	addb   $0x1,-0x1e(%ebp)
  1019d1:	8b 45 dc             	mov    -0x24(%ebp),%eax
  1019d4:	0f b6 80 04 11 00 00 	movzbl 0x1104(%eax),%eax
  1019db:	38 45 e2             	cmp    %al,-0x1e(%ebp)
  1019de:	72 bb                	jb     10199b <mailbox_try_dequeue+0xd2>
  1019e0:	8b 45 dc             	mov    -0x24(%ebp),%eax
  1019e3:	0f b6 80 04 11 00 00 	movzbl 0x1104(%eax),%eax
  1019ea:	84 c0                	test   %al,%al
  1019ec:	74 16                	je     101a04 <mailbox_try_dequeue+0x13b>
  1019ee:	8b 45 dc             	mov    -0x24(%ebp),%eax
  1019f1:	0f b6 80 04 11 00 00 	movzbl 0x1104(%eax),%eax
  1019f8:	8d 50 ff             	lea    -0x1(%eax),%edx
  1019fb:	8b 45 dc             	mov    -0x24(%ebp),%eax
  1019fe:	88 90 04 11 00 00    	mov    %dl,0x1104(%eax)
  101a04:	8b 45 dc             	mov    -0x24(%ebp),%eax
  101a07:	0f b6 80 04 11 00 00 	movzbl 0x1104(%eax),%eax
  101a0e:	0f b6 c0             	movzbl %al,%eax
  101a11:	8b 55 dc             	mov    -0x24(%ebp),%edx
  101a14:	69 c0 10 01 00 00    	imul   $0x110,%eax,%eax
  101a1a:	01 d0                	add    %edx,%eax
  101a1c:	83 c0 04             	add    $0x4,%eax
  101a1f:	c6 00 00             	movb   $0x0,(%eax)
  101a22:	8b 45 dc             	mov    -0x24(%ebp),%eax
  101a25:	0f b6 80 04 11 00 00 	movzbl 0x1104(%eax),%eax
  101a2c:	0f b6 c0             	movzbl %al,%eax
  101a2f:	8b 55 dc             	mov    -0x24(%ebp),%edx
  101a32:	69 c0 10 01 00 00    	imul   $0x110,%eax,%eax
  101a38:	01 d0                	add    %edx,%eax
  101a3a:	83 c0 08             	add    $0x8,%eax
  101a3d:	c7 00 00 00 00 00    	movl   $0x0,(%eax)
  101a43:	8b 45 dc             	mov    -0x24(%ebp),%eax
  101a46:	0f b6 80 04 11 00 00 	movzbl 0x1104(%eax),%eax
  101a4d:	0f b6 c0             	movzbl %al,%eax
  101a50:	8b 55 dc             	mov    -0x24(%ebp),%edx
  101a53:	69 c0 10 01 00 00    	imul   $0x110,%eax,%eax
  101a59:	01 d0                	add    %edx,%eax
  101a5b:	83 c0 0c             	add    $0xc,%eax
  101a5e:	c7 00 00 00 00 00    	movl   $0x0,(%eax)
  101a64:	8b 45 dc             	mov    -0x24(%ebp),%eax
  101a67:	0f b6 80 04 11 00 00 	movzbl 0x1104(%eax),%eax
  101a6e:	0f b6 c0             	movzbl %al,%eax
  101a71:	8b 55 dc             	mov    -0x24(%ebp),%edx
  101a74:	69 c0 10 01 00 00    	imul   $0x110,%eax,%eax
  101a7a:	01 d0                	add    %edx,%eax
  101a7c:	83 c0 10             	add    $0x10,%eax
  101a7f:	c7 00 00 00 00 00    	movl   $0x0,(%eax)
  101a85:	8b 55 d4             	mov    -0x2c(%ebp),%edx
  101a88:	8b 45 dc             	mov    -0x24(%ebp),%eax
  101a8b:	83 ec 08             	sub    $0x8,%esp
  101a8e:	52                   	push   %edx
  101a8f:	50                   	push   %eax
  101a90:	e8 10 9c 01 00       	call   11b6a5 <spinlock_unlock_irqrestore>
  101a95:	83 c4 10             	add    $0x10,%esp
  101a98:	8b 45 e4             	mov    -0x1c(%ebp),%eax
  101a9b:	f7 d0                	not    %eax
  101a9d:	c1 e8 1f             	shr    $0x1f,%eax
  101aa0:	0f b6 c0             	movzbl %al,%eax
  101aa3:	8d 65 f4             	lea    -0xc(%ebp),%esp
  101aa6:	5b                   	pop    %ebx
  101aa7:	5e                   	pop    %esi
  101aa8:	5f                   	pop    %edi
  101aa9:	5d                   	pop    %ebp
  101aaa:	c3                   	ret

00101aab <mailbox_enqueue>:
  101aab:	55                   	push   %ebp
  101aac:	89 e5                	mov    %esp,%ebp
  101aae:	83 ec 28             	sub    $0x28,%esp
  101ab1:	83 7d 08 00          	cmpl   $0x0,0x8(%ebp)
  101ab5:	75 0a                	jne    101ac1 <mailbox_enqueue+0x16>
  101ab7:	b8 ff ff ff ff       	mov    $0xffffffff,%eax
  101abc:	e9 14 01 00 00       	jmp    101bd5 <mailbox_enqueue+0x12a>
  101ac1:	8b 45 08             	mov    0x8(%ebp),%eax
  101ac4:	05 64 10 00 00       	add    $0x1064,%eax
  101ac9:	89 45 f4             	mov    %eax,-0xc(%ebp)
  101acc:	8b 45 f4             	mov    -0xc(%ebp),%eax
  101acf:	83 ec 08             	sub    $0x8,%esp
  101ad2:	8d 55 e4             	lea    -0x1c(%ebp),%edx
  101ad5:	52                   	push   %edx
  101ad6:	50                   	push   %eax
  101ad7:	e8 99 9b 01 00       	call   11b675 <spinlock_lock_irqsave>
  101adc:	83 c4 10             	add    $0x10,%esp
  101adf:	8b 45 f4             	mov    -0xc(%ebp),%eax
  101ae2:	0f b6 80 04 11 00 00 	movzbl 0x1104(%eax),%eax
  101ae9:	3c 0f                	cmp    $0xf,%al
  101aeb:	76 1d                	jbe    101b0a <mailbox_enqueue+0x5f>
  101aed:	8b 55 e4             	mov    -0x1c(%ebp),%edx
  101af0:	8b 45 f4             	mov    -0xc(%ebp),%eax
  101af3:	83 ec 08             	sub    $0x8,%esp
  101af6:	52                   	push   %edx
  101af7:	50                   	push   %eax
  101af8:	e8 a8 9b 01 00       	call   11b6a5 <spinlock_unlock_irqrestore>
  101afd:	83 c4 10             	add    $0x10,%esp
  101b00:	b8 ff ff ff ff       	mov    $0xffffffff,%eax
  101b05:	e9 cb 00 00 00       	jmp    101bd5 <mailbox_enqueue+0x12a>
  101b0a:	8b 45 f4             	mov    -0xc(%ebp),%eax
  101b0d:	0f b6 80 04 11 00 00 	movzbl 0x1104(%eax),%eax
  101b14:	0f b6 c0             	movzbl %al,%eax
  101b17:	69 d0 10 01 00 00    	imul   $0x110,%eax,%edx
  101b1d:	8b 45 f4             	mov    -0xc(%ebp),%eax
  101b20:	01 d0                	add    %edx,%eax
  101b22:	83 c0 04             	add    $0x4,%eax
  101b25:	89 45 f0             	mov    %eax,-0x10(%ebp)
  101b28:	8b 45 f0             	mov    -0x10(%ebp),%eax
  101b2b:	c6 00 01             	movb   $0x1,(%eax)
  101b2e:	8b 45 f0             	mov    -0x10(%ebp),%eax
  101b31:	8b 55 0c             	mov    0xc(%ebp),%edx
  101b34:	89 50 04             	mov    %edx,0x4(%eax)
  101b37:	8b 45 f0             	mov    -0x10(%ebp),%eax
  101b3a:	8b 55 18             	mov    0x18(%ebp),%edx
  101b3d:	89 50 08             	mov    %edx,0x8(%eax)
  101b40:	8b 45 f0             	mov    -0x10(%ebp),%eax
  101b43:	8b 55 14             	mov    0x14(%ebp),%edx
  101b46:	89 50 0c             	mov    %edx,0xc(%eax)
  101b49:	83 7d 10 00          	cmpl   $0x0,0x10(%ebp)
  101b4d:	74 1e                	je     101b6d <mailbox_enqueue+0xc2>
  101b4f:	83 7d 14 00          	cmpl   $0x0,0x14(%ebp)
  101b53:	74 18                	je     101b6d <mailbox_enqueue+0xc2>
  101b55:	8b 45 f0             	mov    -0x10(%ebp),%eax
  101b58:	83 c0 10             	add    $0x10,%eax
  101b5b:	83 ec 04             	sub    $0x4,%esp
  101b5e:	ff 75 14             	push   0x14(%ebp)
  101b61:	ff 75 10             	push   0x10(%ebp)
  101b64:	50                   	push   %eax
  101b65:	e8 2d fa ff ff       	call   101597 <buffer_copy>
  101b6a:	83 c4 10             	add    $0x10,%esp
  101b6d:	8b 45 f4             	mov    -0xc(%ebp),%eax
  101b70:	0f b6 80 04 11 00 00 	movzbl 0x1104(%eax),%eax
  101b77:	8d 50 01             	lea    0x1(%eax),%edx
  101b7a:	8b 45 f4             	mov    -0xc(%ebp),%eax
  101b7d:	88 90 04 11 00 00    	mov    %dl,0x1104(%eax)
  101b83:	83 ec 0c             	sub    $0xc,%esp
  101b86:	ff 75 f4             	push   -0xc(%ebp)
  101b89:	e8 91 fc ff ff       	call   10181f <mailbox_pop_waiter>
  101b8e:	83 c4 10             	add    $0x10,%esp
  101b91:	89 45 ec             	mov    %eax,-0x14(%ebp)
  101b94:	8b 55 e4             	mov    -0x1c(%ebp),%edx
  101b97:	8b 45 f4             	mov    -0xc(%ebp),%eax
  101b9a:	83 ec 08             	sub    $0x8,%esp
  101b9d:	52                   	push   %edx
  101b9e:	50                   	push   %eax
  101b9f:	e8 01 9b 01 00       	call   11b6a5 <spinlock_unlock_irqrestore>
  101ba4:	83 c4 10             	add    $0x10,%esp
  101ba7:	83 7d ec 00          	cmpl   $0x0,-0x14(%ebp)
  101bab:	7e 25                	jle    101bd2 <mailbox_enqueue+0x127>
  101bad:	83 ec 0c             	sub    $0xc,%esp
  101bb0:	ff 75 ec             	push   -0x14(%ebp)
  101bb3:	e8 e9 35 00 00       	call   1051a1 <process_lookup>
  101bb8:	83 c4 10             	add    $0x10,%esp
  101bbb:	89 45 e8             	mov    %eax,-0x18(%ebp)
  101bbe:	83 7d e8 00          	cmpl   $0x0,-0x18(%ebp)
  101bc2:	74 0e                	je     101bd2 <mailbox_enqueue+0x127>
  101bc4:	83 ec 0c             	sub    $0xc,%esp
  101bc7:	ff 75 e8             	push   -0x18(%ebp)
  101bca:	e8 e2 36 00 00       	call   1052b1 <process_wake>
  101bcf:	83 c4 10             	add    $0x10,%esp
  101bd2:	8b 45 14             	mov    0x14(%ebp),%eax
  101bd5:	c9                   	leave
  101bd6:	c3                   	ret

00101bd7 <capability_find_slot>:
  101bd7:	55                   	push   %ebp
  101bd8:	89 e5                	mov    %esp,%ebp
  101bda:	83 ec 10             	sub    $0x10,%esp
  101bdd:	83 7d 08 00          	cmpl   $0x0,0x8(%ebp)
  101be1:	75 07                	jne    101bea <capability_find_slot+0x13>
  101be3:	b8 00 00 00 00       	mov    $0x0,%eax
  101be8:	eb 6c                	jmp    101c56 <capability_find_slot+0x7f>
  101bea:	c7 45 fc 00 00 00 00 	movl   $0x0,-0x4(%ebp)
  101bf1:	eb 58                	jmp    101c4b <capability_find_slot+0x74>
  101bf3:	8b 4d 08             	mov    0x8(%ebp),%ecx
  101bf6:	8b 55 fc             	mov    -0x4(%ebp),%edx
  101bf9:	89 d0                	mov    %edx,%eax
  101bfb:	01 c0                	add    %eax,%eax
  101bfd:	01 d0                	add    %edx,%eax
  101bff:	c1 e0 02             	shl    $0x2,%eax
  101c02:	01 c8                	add    %ecx,%eax
  101c04:	05 90 21 00 00       	add    $0x2190,%eax
  101c09:	0f b6 00             	movzbl (%eax),%eax
  101c0c:	84 c0                	test   %al,%al
  101c0e:	74 36                	je     101c46 <capability_find_slot+0x6f>
  101c10:	8b 4d 08             	mov    0x8(%ebp),%ecx
  101c13:	8b 55 fc             	mov    -0x4(%ebp),%edx
  101c16:	89 d0                	mov    %edx,%eax
  101c18:	01 c0                	add    %eax,%eax
  101c1a:	01 d0                	add    %edx,%eax
  101c1c:	c1 e0 02             	shl    $0x2,%eax
  101c1f:	01 c8                	add    %ecx,%eax
  101c21:	05 94 21 00 00       	add    $0x2194,%eax
  101c26:	8b 00                	mov    (%eax),%eax
  101c28:	39 45 0c             	cmp    %eax,0xc(%ebp)
  101c2b:	75 1a                	jne    101c47 <capability_find_slot+0x70>
  101c2d:	8b 55 fc             	mov    -0x4(%ebp),%edx
  101c30:	89 d0                	mov    %edx,%eax
  101c32:	01 c0                	add    %eax,%eax
  101c34:	01 d0                	add    %edx,%eax
  101c36:	c1 e0 02             	shl    $0x2,%eax
  101c39:	8d 90 90 21 00 00    	lea    0x2190(%eax),%edx
  101c3f:	8b 45 08             	mov    0x8(%ebp),%eax
  101c42:	01 d0                	add    %edx,%eax
  101c44:	eb 10                	jmp    101c56 <capability_find_slot+0x7f>
  101c46:	90                   	nop
  101c47:	83 45 fc 01          	addl   $0x1,-0x4(%ebp)
  101c4b:	83 7d fc 0f          	cmpl   $0xf,-0x4(%ebp)
  101c4f:	76 a2                	jbe    101bf3 <capability_find_slot+0x1c>
  101c51:	b8 00 00 00 00       	mov    $0x0,%eax
  101c56:	c9                   	leave
  101c57:	c3                   	ret

00101c58 <capability_check>:
  101c58:	55                   	push   %ebp
  101c59:	89 e5                	mov    %esp,%ebp
  101c5b:	83 ec 18             	sub    $0x18,%esp
  101c5e:	83 7d 08 00          	cmpl   $0x0,0x8(%ebp)
  101c62:	75 0a                	jne    101c6e <capability_check+0x16>
  101c64:	b8 01 00 00 00       	mov    $0x1,%eax
  101c69:	e9 a8 00 00 00       	jmp    101d16 <capability_check+0xbe>
  101c6e:	83 7d 10 00          	cmpl   $0x0,0x10(%ebp)
  101c72:	75 0a                	jne    101c7e <capability_check+0x26>
  101c74:	b8 01 00 00 00       	mov    $0x1,%eax
  101c79:	e9 98 00 00 00       	jmp    101d16 <capability_check+0xbe>
  101c7e:	8b 45 08             	mov    0x8(%ebp),%eax
  101c81:	8b 80 40 10 00 00    	mov    0x1040(%eax),%eax
  101c87:	85 c0                	test   %eax,%eax
  101c89:	75 0a                	jne    101c95 <capability_check+0x3d>
  101c8b:	b8 01 00 00 00       	mov    $0x1,%eax
  101c90:	e9 81 00 00 00       	jmp    101d16 <capability_check+0xbe>
  101c95:	83 7d 0c 00          	cmpl   $0x0,0xc(%ebp)
  101c99:	7f 07                	jg     101ca2 <capability_check+0x4a>
  101c9b:	b8 01 00 00 00       	mov    $0x1,%eax
  101ca0:	eb 74                	jmp    101d16 <capability_check+0xbe>
  101ca2:	8b 45 08             	mov    0x8(%ebp),%eax
  101ca5:	8b 00                	mov    (%eax),%eax
  101ca7:	39 45 0c             	cmp    %eax,0xc(%ebp)
  101caa:	75 07                	jne    101cb3 <capability_check+0x5b>
  101cac:	b8 01 00 00 00       	mov    $0x1,%eax
  101cb1:	eb 63                	jmp    101d16 <capability_check+0xbe>
  101cb3:	83 ec 08             	sub    $0x8,%esp
  101cb6:	8d 45 ec             	lea    -0x14(%ebp),%eax
  101cb9:	50                   	push   %eax
  101cba:	68 00 0c 13 00       	push   $0x130c00
  101cbf:	e8 b1 99 01 00       	call   11b675 <spinlock_lock_irqsave>
  101cc4:	83 c4 10             	add    $0x10,%esp
  101cc7:	83 ec 08             	sub    $0x8,%esp
  101cca:	ff 75 0c             	push   0xc(%ebp)
  101ccd:	ff 75 08             	push   0x8(%ebp)
  101cd0:	e8 02 ff ff ff       	call   101bd7 <capability_find_slot>
  101cd5:	83 c4 10             	add    $0x10,%esp
  101cd8:	89 45 f0             	mov    %eax,-0x10(%ebp)
  101cdb:	83 7d f0 00          	cmpl   $0x0,-0x10(%ebp)
  101cdf:	74 0b                	je     101cec <capability_check+0x94>
  101ce1:	8b 45 f0             	mov    -0x10(%ebp),%eax
  101ce4:	8b 40 08             	mov    0x8(%eax),%eax
  101ce7:	89 45 f4             	mov    %eax,-0xc(%ebp)
  101cea:	eb 07                	jmp    101cf3 <capability_check+0x9b>
  101cec:	c7 45 f4 00 00 00 00 	movl   $0x0,-0xc(%ebp)
  101cf3:	8b 45 ec             	mov    -0x14(%ebp),%eax
  101cf6:	83 ec 08             	sub    $0x8,%esp
  101cf9:	50                   	push   %eax
  101cfa:	68 00 0c 13 00       	push   $0x130c00
  101cff:	e8 a1 99 01 00       	call   11b6a5 <spinlock_unlock_irqrestore>
  101d04:	83 c4 10             	add    $0x10,%esp
  101d07:	8b 45 f4             	mov    -0xc(%ebp),%eax
  101d0a:	23 45 10             	and    0x10(%ebp),%eax
  101d0d:	39 45 10             	cmp    %eax,0x10(%ebp)
  101d10:	0f 94 c0             	sete   %al
  101d13:	0f b6 c0             	movzbl %al,%eax
  101d16:	c9                   	leave
  101d17:	c3                   	ret

00101d18 <share_attach_to_process>:
  101d18:	55                   	push   %ebp
  101d19:	89 e5                	mov    %esp,%ebp
  101d1b:	83 ec 10             	sub    $0x10,%esp
  101d1e:	83 7d 08 00          	cmpl   $0x0,0x8(%ebp)
  101d22:	75 07                	jne    101d2b <share_attach_to_process+0x13>
  101d24:	b8 00 00 00 00       	mov    $0x0,%eax
  101d29:	eb 7c                	jmp    101da7 <share_attach_to_process+0x8f>
  101d2b:	c7 45 fc 00 00 00 00 	movl   $0x0,-0x4(%ebp)
  101d32:	eb 68                	jmp    101d9c <share_attach_to_process+0x84>
  101d34:	8b 45 08             	mov    0x8(%ebp),%eax
  101d37:	8b 55 fc             	mov    -0x4(%ebp),%edx
  101d3a:	81 c2 4a 04 00 00    	add    $0x44a,%edx
  101d40:	0f b6 44 d0 04       	movzbl 0x4(%eax,%edx,8),%eax
  101d45:	84 c0                	test   %al,%al
  101d47:	75 4f                	jne    101d98 <share_attach_to_process+0x80>
  101d49:	8b 45 08             	mov    0x8(%ebp),%eax
  101d4c:	8b 55 fc             	mov    -0x4(%ebp),%edx
  101d4f:	81 c2 4a 04 00 00    	add    $0x44a,%edx
  101d55:	c6 44 d0 04 01       	movb   $0x1,0x4(%eax,%edx,8)
  101d5a:	8b 45 08             	mov    0x8(%ebp),%eax
  101d5d:	8b 55 fc             	mov    -0x4(%ebp),%edx
  101d60:	8d 8a 4a 04 00 00    	lea    0x44a(%edx),%ecx
  101d66:	8b 55 0c             	mov    0xc(%ebp),%edx
  101d69:	89 54 c8 08          	mov    %edx,0x8(%eax,%ecx,8)
  101d6d:	8b 45 08             	mov    0x8(%ebp),%eax
  101d70:	0f b6 80 94 22 00 00 	movzbl 0x2294(%eax),%eax
  101d77:	3c 07                	cmp    $0x7,%al
  101d79:	77 16                	ja     101d91 <share_attach_to_process+0x79>
  101d7b:	8b 45 08             	mov    0x8(%ebp),%eax
  101d7e:	0f b6 80 94 22 00 00 	movzbl 0x2294(%eax),%eax
  101d85:	8d 50 01             	lea    0x1(%eax),%edx
  101d88:	8b 45 08             	mov    0x8(%ebp),%eax
  101d8b:	88 90 94 22 00 00    	mov    %dl,0x2294(%eax)
  101d91:	b8 00 00 00 00       	mov    $0x0,%eax
  101d96:	eb 0f                	jmp    101da7 <share_attach_to_process+0x8f>
  101d98:	83 45 fc 01          	addl   $0x1,-0x4(%ebp)
  101d9c:	83 7d fc 07          	cmpl   $0x7,-0x4(%ebp)
  101da0:	76 92                	jbe    101d34 <share_attach_to_process+0x1c>
  101da2:	b8 ff ff ff ff       	mov    $0xffffffff,%eax
  101da7:	c9                   	leave
  101da8:	c3                   	ret

00101da9 <share_detach_from_process>:
  101da9:	55                   	push   %ebp
  101daa:	89 e5                	mov    %esp,%ebp
  101dac:	83 ec 10             	sub    $0x10,%esp
  101daf:	83 7d 08 00          	cmpl   $0x0,0x8(%ebp)
  101db3:	0f 84 8b 00 00 00    	je     101e44 <share_detach_from_process+0x9b>
  101db9:	c7 45 fc 00 00 00 00 	movl   $0x0,-0x4(%ebp)
  101dc0:	eb 7a                	jmp    101e3c <share_detach_from_process+0x93>
  101dc2:	8b 45 08             	mov    0x8(%ebp),%eax
  101dc5:	8b 55 fc             	mov    -0x4(%ebp),%edx
  101dc8:	81 c2 4a 04 00 00    	add    $0x44a,%edx
  101dce:	0f b6 44 d0 04       	movzbl 0x4(%eax,%edx,8),%eax
  101dd3:	84 c0                	test   %al,%al
  101dd5:	74 60                	je     101e37 <share_detach_from_process+0x8e>
  101dd7:	8b 45 08             	mov    0x8(%ebp),%eax
  101dda:	8b 55 fc             	mov    -0x4(%ebp),%edx
  101ddd:	81 c2 4a 04 00 00    	add    $0x44a,%edx
  101de3:	8b 44 d0 08          	mov    0x8(%eax,%edx,8),%eax
  101de7:	39 45 0c             	cmp    %eax,0xc(%ebp)
  101dea:	75 4c                	jne    101e38 <share_detach_from_process+0x8f>
  101dec:	8b 45 08             	mov    0x8(%ebp),%eax
  101def:	8b 55 fc             	mov    -0x4(%ebp),%edx
  101df2:	81 c2 4a 04 00 00    	add    $0x44a,%edx
  101df8:	c6 44 d0 04 00       	movb   $0x0,0x4(%eax,%edx,8)
  101dfd:	8b 45 08             	mov    0x8(%ebp),%eax
  101e00:	8b 55 fc             	mov    -0x4(%ebp),%edx
  101e03:	81 c2 4a 04 00 00    	add    $0x44a,%edx
  101e09:	c7 44 d0 08 ff ff ff 	movl   $0xffffffff,0x8(%eax,%edx,8)
  101e10:	ff 
  101e11:	8b 45 08             	mov    0x8(%ebp),%eax
  101e14:	0f b6 80 94 22 00 00 	movzbl 0x2294(%eax),%eax
  101e1b:	84 c0                	test   %al,%al
  101e1d:	74 28                	je     101e47 <share_detach_from_process+0x9e>
  101e1f:	8b 45 08             	mov    0x8(%ebp),%eax
  101e22:	0f b6 80 94 22 00 00 	movzbl 0x2294(%eax),%eax
  101e29:	8d 50 ff             	lea    -0x1(%eax),%edx
  101e2c:	8b 45 08             	mov    0x8(%ebp),%eax
  101e2f:	88 90 94 22 00 00    	mov    %dl,0x2294(%eax)
  101e35:	eb 10                	jmp    101e47 <share_detach_from_process+0x9e>
  101e37:	90                   	nop
  101e38:	83 45 fc 01          	addl   $0x1,-0x4(%ebp)
  101e3c:	83 7d fc 07          	cmpl   $0x7,-0x4(%ebp)
  101e40:	76 80                	jbe    101dc2 <share_detach_from_process+0x19>
  101e42:	eb 04                	jmp    101e48 <share_detach_from_process+0x9f>
  101e44:	90                   	nop
  101e45:	eb 01                	jmp    101e48 <share_detach_from_process+0x9f>
  101e47:	90                   	nop
  101e48:	c9                   	leave
  101e49:	c3                   	ret

00101e4a <share_drop_for_pid>:
  101e4a:	55                   	push   %ebp
  101e4b:	89 e5                	mov    %esp,%ebp
  101e4d:	83 ec 28             	sub    $0x28,%esp
  101e50:	83 7d 08 00          	cmpl   $0x0,0x8(%ebp)
  101e54:	0f 8e 2e 01 00 00    	jle    101f88 <share_drop_for_pid+0x13e>
  101e5a:	83 ec 08             	sub    $0x8,%esp
  101e5d:	8d 45 dc             	lea    -0x24(%ebp),%eax
  101e60:	50                   	push   %eax
  101e61:	68 04 0c 13 00       	push   $0x130c04
  101e66:	e8 0a 98 01 00       	call   11b675 <spinlock_lock_irqsave>
  101e6b:	83 c4 10             	add    $0x10,%esp
  101e6e:	c7 45 f4 00 00 00 00 	movl   $0x0,-0xc(%ebp)
  101e75:	e9 ee 00 00 00       	jmp    101f68 <share_drop_for_pid+0x11e>
  101e7a:	8b 55 f4             	mov    -0xc(%ebp),%edx
  101e7d:	89 d0                	mov    %edx,%eax
  101e7f:	01 c0                	add    %eax,%eax
  101e81:	01 d0                	add    %edx,%eax
  101e83:	c1 e0 03             	shl    $0x3,%eax
  101e86:	05 20 0c 13 00       	add    $0x130c20,%eax
  101e8b:	89 45 f0             	mov    %eax,-0x10(%ebp)
  101e8e:	8b 45 f0             	mov    -0x10(%ebp),%eax
  101e91:	0f b6 00             	movzbl (%eax),%eax
  101e94:	84 c0                	test   %al,%al
  101e96:	0f 84 c4 00 00 00    	je     101f60 <share_drop_for_pid+0x116>
  101e9c:	8b 45 f0             	mov    -0x10(%ebp),%eax
  101e9f:	8b 40 04             	mov    0x4(%eax),%eax
  101ea2:	39 45 08             	cmp    %eax,0x8(%ebp)
  101ea5:	74 0f                	je     101eb6 <share_drop_for_pid+0x6c>
  101ea7:	8b 45 f0             	mov    -0x10(%ebp),%eax
  101eaa:	8b 40 08             	mov    0x8(%eax),%eax
  101ead:	39 45 08             	cmp    %eax,0x8(%ebp)
  101eb0:	0f 85 ad 00 00 00    	jne    101f63 <share_drop_for_pid+0x119>
  101eb6:	8b 45 f0             	mov    -0x10(%ebp),%eax
  101eb9:	8b 40 04             	mov    0x4(%eax),%eax
  101ebc:	89 45 ec             	mov    %eax,-0x14(%ebp)
  101ebf:	8b 45 f0             	mov    -0x10(%ebp),%eax
  101ec2:	8b 40 08             	mov    0x8(%eax),%eax
  101ec5:	89 45 e8             	mov    %eax,-0x18(%ebp)
  101ec8:	83 7d ec 00          	cmpl   $0x0,-0x14(%ebp)
  101ecc:	7e 29                	jle    101ef7 <share_drop_for_pid+0xad>
  101ece:	83 ec 0c             	sub    $0xc,%esp
  101ed1:	ff 75 ec             	push   -0x14(%ebp)
  101ed4:	e8 c8 32 00 00       	call   1051a1 <process_lookup>
  101ed9:	83 c4 10             	add    $0x10,%esp
  101edc:	89 45 e4             	mov    %eax,-0x1c(%ebp)
  101edf:	83 7d e4 00          	cmpl   $0x0,-0x1c(%ebp)
  101ee3:	74 12                	je     101ef7 <share_drop_for_pid+0xad>
  101ee5:	8b 45 f4             	mov    -0xc(%ebp),%eax
  101ee8:	83 ec 08             	sub    $0x8,%esp
  101eeb:	50                   	push   %eax
  101eec:	ff 75 e4             	push   -0x1c(%ebp)
  101eef:	e8 b5 fe ff ff       	call   101da9 <share_detach_from_process>
  101ef4:	83 c4 10             	add    $0x10,%esp
  101ef7:	83 7d e8 00          	cmpl   $0x0,-0x18(%ebp)
  101efb:	7e 29                	jle    101f26 <share_drop_for_pid+0xdc>
  101efd:	83 ec 0c             	sub    $0xc,%esp
  101f00:	ff 75 e8             	push   -0x18(%ebp)
  101f03:	e8 99 32 00 00       	call   1051a1 <process_lookup>
  101f08:	83 c4 10             	add    $0x10,%esp
  101f0b:	89 45 e0             	mov    %eax,-0x20(%ebp)
  101f0e:	83 7d e0 00          	cmpl   $0x0,-0x20(%ebp)
  101f12:	74 12                	je     101f26 <share_drop_for_pid+0xdc>
  101f14:	8b 45 f4             	mov    -0xc(%ebp),%eax
  101f17:	83 ec 08             	sub    $0x8,%esp
  101f1a:	50                   	push   %eax
  101f1b:	ff 75 e0             	push   -0x20(%ebp)
  101f1e:	e8 86 fe ff ff       	call   101da9 <share_detach_from_process>
  101f23:	83 c4 10             	add    $0x10,%esp
  101f26:	8b 45 f0             	mov    -0x10(%ebp),%eax
  101f29:	c6 00 00             	movb   $0x0,(%eax)
  101f2c:	8b 45 f0             	mov    -0x10(%ebp),%eax
  101f2f:	c7 40 04 ff ff ff ff 	movl   $0xffffffff,0x4(%eax)
  101f36:	8b 45 f0             	mov    -0x10(%ebp),%eax
  101f39:	c7 40 08 ff ff ff ff 	movl   $0xffffffff,0x8(%eax)
  101f40:	8b 45 f0             	mov    -0x10(%ebp),%eax
  101f43:	c7 40 0c 00 00 00 00 	movl   $0x0,0xc(%eax)
  101f4a:	8b 45 f0             	mov    -0x10(%ebp),%eax
  101f4d:	c7 40 10 00 00 00 00 	movl   $0x0,0x10(%eax)
  101f54:	8b 45 f0             	mov    -0x10(%ebp),%eax
  101f57:	c7 40 14 00 00 00 00 	movl   $0x0,0x14(%eax)
  101f5e:	eb 04                	jmp    101f64 <share_drop_for_pid+0x11a>
  101f60:	90                   	nop
  101f61:	eb 01                	jmp    101f64 <share_drop_for_pid+0x11a>
  101f63:	90                   	nop
  101f64:	83 45 f4 01          	addl   $0x1,-0xc(%ebp)
  101f68:	83 7d f4 3f          	cmpl   $0x3f,-0xc(%ebp)
  101f6c:	0f 86 08 ff ff ff    	jbe    101e7a <share_drop_for_pid+0x30>
  101f72:	8b 45 dc             	mov    -0x24(%ebp),%eax
  101f75:	83 ec 08             	sub    $0x8,%esp
  101f78:	50                   	push   %eax
  101f79:	68 04 0c 13 00       	push   $0x130c04
  101f7e:	e8 22 97 01 00       	call   11b6a5 <spinlock_unlock_irqrestore>
  101f83:	83 c4 10             	add    $0x10,%esp
  101f86:	eb 01                	jmp    101f89 <share_drop_for_pid+0x13f>
  101f88:	90                   	nop
  101f89:	c9                   	leave
  101f8a:	c3                   	ret

00101f8b <ipc_attach_process>:
  101f8b:	55                   	push   %ebp
  101f8c:	89 e5                	mov    %esp,%ebp
  101f8e:	83 ec 18             	sub    $0x18,%esp
  101f91:	83 7d 08 00          	cmpl   $0x0,0x8(%ebp)
  101f95:	0f 84 d3 00 00 00    	je     10206e <ipc_attach_process+0xe3>
  101f9b:	8b 45 08             	mov    0x8(%ebp),%eax
  101f9e:	05 64 10 00 00       	add    $0x1064,%eax
  101fa3:	83 ec 0c             	sub    $0xc,%esp
  101fa6:	50                   	push   %eax
  101fa7:	e8 32 f6 ff ff       	call   1015de <mailbox_init>
  101fac:	83 c4 10             	add    $0x10,%esp
  101faf:	c7 45 f4 00 00 00 00 	movl   $0x0,-0xc(%ebp)
  101fb6:	eb 55                	jmp    10200d <ipc_attach_process+0x82>
  101fb8:	8b 4d 08             	mov    0x8(%ebp),%ecx
  101fbb:	8b 55 f4             	mov    -0xc(%ebp),%edx
  101fbe:	89 d0                	mov    %edx,%eax
  101fc0:	01 c0                	add    %eax,%eax
  101fc2:	01 d0                	add    %edx,%eax
  101fc4:	c1 e0 02             	shl    $0x2,%eax
  101fc7:	01 c8                	add    %ecx,%eax
  101fc9:	05 90 21 00 00       	add    $0x2190,%eax
  101fce:	c6 00 00             	movb   $0x0,(%eax)
  101fd1:	8b 4d 08             	mov    0x8(%ebp),%ecx
  101fd4:	8b 55 f4             	mov    -0xc(%ebp),%edx
  101fd7:	89 d0                	mov    %edx,%eax
  101fd9:	01 c0                	add    %eax,%eax
  101fdb:	01 d0                	add    %edx,%eax
  101fdd:	c1 e0 02             	shl    $0x2,%eax
  101fe0:	01 c8                	add    %ecx,%eax
  101fe2:	05 94 21 00 00       	add    $0x2194,%eax
  101fe7:	c7 00 ff ff ff ff    	movl   $0xffffffff,(%eax)
  101fed:	8b 4d 08             	mov    0x8(%ebp),%ecx
  101ff0:	8b 55 f4             	mov    -0xc(%ebp),%edx
  101ff3:	89 d0                	mov    %edx,%eax
  101ff5:	01 c0                	add    %eax,%eax
  101ff7:	01 d0                	add    %edx,%eax
  101ff9:	c1 e0 02             	shl    $0x2,%eax
  101ffc:	01 c8                	add    %ecx,%eax
  101ffe:	05 98 21 00 00       	add    $0x2198,%eax
  102003:	c7 00 00 00 00 00    	movl   $0x0,(%eax)
  102009:	83 45 f4 01          	addl   $0x1,-0xc(%ebp)
  10200d:	83 7d f4 0f          	cmpl   $0xf,-0xc(%ebp)
  102011:	76 a5                	jbe    101fb8 <ipc_attach_process+0x2d>
  102013:	8b 45 08             	mov    0x8(%ebp),%eax
  102016:	c6 80 50 22 00 00 00 	movb   $0x0,0x2250(%eax)
  10201d:	c7 45 f0 00 00 00 00 	movl   $0x0,-0x10(%ebp)
  102024:	eb 29                	jmp    10204f <ipc_attach_process+0xc4>
  102026:	8b 45 08             	mov    0x8(%ebp),%eax
  102029:	8b 55 f0             	mov    -0x10(%ebp),%edx
  10202c:	81 c2 4a 04 00 00    	add    $0x44a,%edx
  102032:	c6 44 d0 04 00       	movb   $0x0,0x4(%eax,%edx,8)
  102037:	8b 45 08             	mov    0x8(%ebp),%eax
  10203a:	8b 55 f0             	mov    -0x10(%ebp),%edx
  10203d:	81 c2 4a 04 00 00    	add    $0x44a,%edx
  102043:	c7 44 d0 08 ff ff ff 	movl   $0xffffffff,0x8(%eax,%edx,8)
  10204a:	ff 
  10204b:	83 45 f0 01          	addl   $0x1,-0x10(%ebp)
  10204f:	83 7d f0 07          	cmpl   $0x7,-0x10(%ebp)
  102053:	76 d1                	jbe    102026 <ipc_attach_process+0x9b>
  102055:	8b 45 08             	mov    0x8(%ebp),%eax
  102058:	c6 80 94 22 00 00 00 	movb   $0x0,0x2294(%eax)
  10205f:	8b 45 08             	mov    0x8(%ebp),%eax
  102062:	c7 80 38 10 00 00 00 	movl   $0x0,0x1038(%eax)
  102069:	00 00 00 
  10206c:	eb 01                	jmp    10206f <ipc_attach_process+0xe4>
  10206e:	90                   	nop
  10206f:	c9                   	leave
  102070:	c3                   	ret

00102071 <ipc_detach_process>:
  102071:	55                   	push   %ebp
  102072:	89 e5                	mov    %esp,%ebp
  102074:	83 ec 28             	sub    $0x28,%esp
  102077:	83 7d 08 00          	cmpl   $0x0,0x8(%ebp)
  10207b:	0f 84 db 01 00 00    	je     10225c <ipc_detach_process+0x1eb>
  102081:	8b 45 08             	mov    0x8(%ebp),%eax
  102084:	05 64 10 00 00       	add    $0x1064,%eax
  102089:	83 ec 0c             	sub    $0xc,%esp
  10208c:	50                   	push   %eax
  10208d:	e8 17 f6 ff ff       	call   1016a9 <mailbox_clear>
  102092:	83 c4 10             	add    $0x10,%esp
  102095:	a1 20 12 13 00       	mov    0x131220,%eax
  10209a:	85 c0                	test   %eax,%eax
  10209c:	0f 85 c2 00 00 00    	jne    102164 <ipc_detach_process+0xf3>
  1020a2:	c7 45 f4 00 00 00 00 	movl   $0x0,-0xc(%ebp)
  1020a9:	eb 55                	jmp    102100 <ipc_detach_process+0x8f>
  1020ab:	8b 4d 08             	mov    0x8(%ebp),%ecx
  1020ae:	8b 55 f4             	mov    -0xc(%ebp),%edx
  1020b1:	89 d0                	mov    %edx,%eax
  1020b3:	01 c0                	add    %eax,%eax
  1020b5:	01 d0                	add    %edx,%eax
  1020b7:	c1 e0 02             	shl    $0x2,%eax
  1020ba:	01 c8                	add    %ecx,%eax
  1020bc:	05 90 21 00 00       	add    $0x2190,%eax
  1020c1:	c6 00 00             	movb   $0x0,(%eax)
  1020c4:	8b 4d 08             	mov    0x8(%ebp),%ecx
  1020c7:	8b 55 f4             	mov    -0xc(%ebp),%edx
  1020ca:	89 d0                	mov    %edx,%eax
  1020cc:	01 c0                	add    %eax,%eax
  1020ce:	01 d0                	add    %edx,%eax
  1020d0:	c1 e0 02             	shl    $0x2,%eax
  1020d3:	01 c8                	add    %ecx,%eax
  1020d5:	05 94 21 00 00       	add    $0x2194,%eax
  1020da:	c7 00 ff ff ff ff    	movl   $0xffffffff,(%eax)
  1020e0:	8b 4d 08             	mov    0x8(%ebp),%ecx
  1020e3:	8b 55 f4             	mov    -0xc(%ebp),%edx
  1020e6:	89 d0                	mov    %edx,%eax
  1020e8:	01 c0                	add    %eax,%eax
  1020ea:	01 d0                	add    %edx,%eax
  1020ec:	c1 e0 02             	shl    $0x2,%eax
  1020ef:	01 c8                	add    %ecx,%eax
  1020f1:	05 98 21 00 00       	add    $0x2198,%eax
  1020f6:	c7 00 00 00 00 00    	movl   $0x0,(%eax)
  1020fc:	83 45 f4 01          	addl   $0x1,-0xc(%ebp)
  102100:	83 7d f4 0f          	cmpl   $0xf,-0xc(%ebp)
  102104:	76 a5                	jbe    1020ab <ipc_detach_process+0x3a>
  102106:	8b 45 08             	mov    0x8(%ebp),%eax
  102109:	c6 80 50 22 00 00 00 	movb   $0x0,0x2250(%eax)
  102110:	c7 45 f0 00 00 00 00 	movl   $0x0,-0x10(%ebp)
  102117:	eb 29                	jmp    102142 <ipc_detach_process+0xd1>
  102119:	8b 45 08             	mov    0x8(%ebp),%eax
  10211c:	8b 55 f0             	mov    -0x10(%ebp),%edx
  10211f:	81 c2 4a 04 00 00    	add    $0x44a,%edx
  102125:	c6 44 d0 04 00       	movb   $0x0,0x4(%eax,%edx,8)
  10212a:	8b 45 08             	mov    0x8(%ebp),%eax
  10212d:	8b 55 f0             	mov    -0x10(%ebp),%edx
  102130:	81 c2 4a 04 00 00    	add    $0x44a,%edx
  102136:	c7 44 d0 08 ff ff ff 	movl   $0xffffffff,0x8(%eax,%edx,8)
  10213d:	ff 
  10213e:	83 45 f0 01          	addl   $0x1,-0x10(%ebp)
  102142:	83 7d f0 07          	cmpl   $0x7,-0x10(%ebp)
  102146:	76 d1                	jbe    102119 <ipc_detach_process+0xa8>
  102148:	8b 45 08             	mov    0x8(%ebp),%eax
  10214b:	c6 80 94 22 00 00 00 	movb   $0x0,0x2294(%eax)
  102152:	8b 45 08             	mov    0x8(%ebp),%eax
  102155:	c7 80 38 10 00 00 00 	movl   $0x0,0x1038(%eax)
  10215c:	00 00 00 
  10215f:	e9 f9 00 00 00       	jmp    10225d <ipc_detach_process+0x1ec>
  102164:	83 ec 08             	sub    $0x8,%esp
  102167:	8d 45 e4             	lea    -0x1c(%ebp),%eax
  10216a:	50                   	push   %eax
  10216b:	68 00 0c 13 00       	push   $0x130c00
  102170:	e8 00 95 01 00       	call   11b675 <spinlock_lock_irqsave>
  102175:	83 c4 10             	add    $0x10,%esp
  102178:	c7 45 ec 00 00 00 00 	movl   $0x0,-0x14(%ebp)
  10217f:	eb 55                	jmp    1021d6 <ipc_detach_process+0x165>
  102181:	8b 4d 08             	mov    0x8(%ebp),%ecx
  102184:	8b 55 ec             	mov    -0x14(%ebp),%edx
  102187:	89 d0                	mov    %edx,%eax
  102189:	01 c0                	add    %eax,%eax
  10218b:	01 d0                	add    %edx,%eax
  10218d:	c1 e0 02             	shl    $0x2,%eax
  102190:	01 c8                	add    %ecx,%eax
  102192:	05 90 21 00 00       	add    $0x2190,%eax
  102197:	c6 00 00             	movb   $0x0,(%eax)
  10219a:	8b 4d 08             	mov    0x8(%ebp),%ecx
  10219d:	8b 55 ec             	mov    -0x14(%ebp),%edx
  1021a0:	89 d0                	mov    %edx,%eax
  1021a2:	01 c0                	add    %eax,%eax
  1021a4:	01 d0                	add    %edx,%eax
  1021a6:	c1 e0 02             	shl    $0x2,%eax
  1021a9:	01 c8                	add    %ecx,%eax
  1021ab:	05 94 21 00 00       	add    $0x2194,%eax
  1021b0:	c7 00 ff ff ff ff    	movl   $0xffffffff,(%eax)
  1021b6:	8b 4d 08             	mov    0x8(%ebp),%ecx
  1021b9:	8b 55 ec             	mov    -0x14(%ebp),%edx
  1021bc:	89 d0                	mov    %edx,%eax
  1021be:	01 c0                	add    %eax,%eax
  1021c0:	01 d0                	add    %edx,%eax
  1021c2:	c1 e0 02             	shl    $0x2,%eax
  1021c5:	01 c8                	add    %ecx,%eax
  1021c7:	05 98 21 00 00       	add    $0x2198,%eax
  1021cc:	c7 00 00 00 00 00    	movl   $0x0,(%eax)
  1021d2:	83 45 ec 01          	addl   $0x1,-0x14(%ebp)
  1021d6:	83 7d ec 0f          	cmpl   $0xf,-0x14(%ebp)
  1021da:	76 a5                	jbe    102181 <ipc_detach_process+0x110>
  1021dc:	8b 45 08             	mov    0x8(%ebp),%eax
  1021df:	c6 80 50 22 00 00 00 	movb   $0x0,0x2250(%eax)
  1021e6:	8b 45 e4             	mov    -0x1c(%ebp),%eax
  1021e9:	83 ec 08             	sub    $0x8,%esp
  1021ec:	50                   	push   %eax
  1021ed:	68 00 0c 13 00       	push   $0x130c00
  1021f2:	e8 ae 94 01 00       	call   11b6a5 <spinlock_unlock_irqrestore>
  1021f7:	83 c4 10             	add    $0x10,%esp
  1021fa:	8b 45 08             	mov    0x8(%ebp),%eax
  1021fd:	8b 00                	mov    (%eax),%eax
  1021ff:	83 ec 0c             	sub    $0xc,%esp
  102202:	50                   	push   %eax
  102203:	e8 42 fc ff ff       	call   101e4a <share_drop_for_pid>
  102208:	83 c4 10             	add    $0x10,%esp
  10220b:	c7 45 e8 00 00 00 00 	movl   $0x0,-0x18(%ebp)
  102212:	eb 29                	jmp    10223d <ipc_detach_process+0x1cc>
  102214:	8b 45 08             	mov    0x8(%ebp),%eax
  102217:	8b 55 e8             	mov    -0x18(%ebp),%edx
  10221a:	81 c2 4a 04 00 00    	add    $0x44a,%edx
  102220:	c6 44 d0 04 00       	movb   $0x0,0x4(%eax,%edx,8)
  102225:	8b 45 08             	mov    0x8(%ebp),%eax
  102228:	8b 55 e8             	mov    -0x18(%ebp),%edx
  10222b:	81 c2 4a 04 00 00    	add    $0x44a,%edx
  102231:	c7 44 d0 08 ff ff ff 	movl   $0xffffffff,0x8(%eax,%edx,8)
  102238:	ff 
  102239:	83 45 e8 01          	addl   $0x1,-0x18(%ebp)
  10223d:	83 7d e8 07          	cmpl   $0x7,-0x18(%ebp)
  102241:	76 d1                	jbe    102214 <ipc_detach_process+0x1a3>
  102243:	8b 45 08             	mov    0x8(%ebp),%eax
  102246:	c6 80 94 22 00 00 00 	movb   $0x0,0x2294(%eax)
  10224d:	8b 45 08             	mov    0x8(%ebp),%eax
  102250:	c7 80 38 10 00 00 00 	movl   $0x0,0x1038(%eax)
  102257:	00 00 00 
  10225a:	eb 01                	jmp    10225d <ipc_detach_process+0x1ec>
  10225c:	90                   	nop
  10225d:	c9                   	leave
  10225e:	c3                   	ret

0010225f <ipc_send>:
  10225f:	55                   	push   %ebp
  102260:	89 e5                	mov    %esp,%ebp
  102262:	81 ec 18 01 00 00    	sub    $0x118,%esp
  102268:	a1 20 12 13 00       	mov    0x131220,%eax
  10226d:	85 c0                	test   %eax,%eax
  10226f:	75 0a                	jne    10227b <ipc_send+0x1c>
  102271:	b8 ff ff ff ff       	mov    $0xffffffff,%eax
  102276:	e9 f1 00 00 00       	jmp    10236c <ipc_send+0x10d>
  10227b:	83 7d 08 00          	cmpl   $0x0,0x8(%ebp)
  10227f:	7f 0a                	jg     10228b <ipc_send+0x2c>
  102281:	b8 ff ff ff ff       	mov    $0xffffffff,%eax
  102286:	e9 e1 00 00 00       	jmp    10236c <ipc_send+0x10d>
  10228b:	81 7d 10 00 01 00 00 	cmpl   $0x100,0x10(%ebp)
  102292:	76 0a                	jbe    10229e <ipc_send+0x3f>
  102294:	b8 ff ff ff ff       	mov    $0xffffffff,%eax
  102299:	e9 ce 00 00 00       	jmp    10236c <ipc_send+0x10d>
  10229e:	83 7d 10 00          	cmpl   $0x0,0x10(%ebp)
  1022a2:	74 10                	je     1022b4 <ipc_send+0x55>
  1022a4:	83 7d 0c 00          	cmpl   $0x0,0xc(%ebp)
  1022a8:	75 0a                	jne    1022b4 <ipc_send+0x55>
  1022aa:	b8 ff ff ff ff       	mov    $0xffffffff,%eax
  1022af:	e9 b8 00 00 00       	jmp    10236c <ipc_send+0x10d>
  1022b4:	83 ec 0c             	sub    $0xc,%esp
  1022b7:	ff 75 08             	push   0x8(%ebp)
  1022ba:	e8 e2 2e 00 00       	call   1051a1 <process_lookup>
  1022bf:	83 c4 10             	add    $0x10,%esp
  1022c2:	89 45 f0             	mov    %eax,-0x10(%ebp)
  1022c5:	83 7d f0 00          	cmpl   $0x0,-0x10(%ebp)
  1022c9:	75 0a                	jne    1022d5 <ipc_send+0x76>
  1022cb:	b8 ff ff ff ff       	mov    $0xffffffff,%eax
  1022d0:	e9 97 00 00 00       	jmp    10236c <ipc_send+0x10d>
  1022d5:	e8 cd 2f 00 00       	call   1052a7 <process_current>
  1022da:	89 45 ec             	mov    %eax,-0x14(%ebp)
  1022dd:	83 7d ec 00          	cmpl   $0x0,-0x14(%ebp)
  1022e1:	74 1e                	je     102301 <ipc_send+0xa2>
  1022e3:	83 ec 04             	sub    $0x4,%esp
  1022e6:	6a 01                	push   $0x1
  1022e8:	ff 75 08             	push   0x8(%ebp)
  1022eb:	ff 75 ec             	push   -0x14(%ebp)
  1022ee:	e8 65 f9 ff ff       	call   101c58 <capability_check>
  1022f3:	83 c4 10             	add    $0x10,%esp
  1022f6:	85 c0                	test   %eax,%eax
  1022f8:	75 07                	jne    102301 <ipc_send+0xa2>
  1022fa:	b8 ff ff ff ff       	mov    $0xffffffff,%eax
  1022ff:	eb 6b                	jmp    10236c <ipc_send+0x10d>
  102301:	83 7d 10 00          	cmpl   $0x0,0x10(%ebp)
  102305:	74 24                	je     10232b <ipc_send+0xcc>
  102307:	83 7d 0c 00          	cmpl   $0x0,0xc(%ebp)
  10230b:	74 1e                	je     10232b <ipc_send+0xcc>
  10230d:	8b 45 0c             	mov    0xc(%ebp),%eax
  102310:	89 45 e8             	mov    %eax,-0x18(%ebp)
  102313:	83 ec 04             	sub    $0x4,%esp
  102316:	ff 75 10             	push   0x10(%ebp)
  102319:	ff 75 e8             	push   -0x18(%ebp)
  10231c:	8d 85 e8 fe ff ff    	lea    -0x118(%ebp),%eax
  102322:	50                   	push   %eax
  102323:	e8 6f f2 ff ff       	call   101597 <buffer_copy>
  102328:	83 c4 10             	add    $0x10,%esp
  10232b:	83 7d ec 00          	cmpl   $0x0,-0x14(%ebp)
  10232f:	74 0a                	je     10233b <ipc_send+0xdc>
  102331:	8b 45 ec             	mov    -0x14(%ebp),%eax
  102334:	8b 00                	mov    (%eax),%eax
  102336:	89 45 f4             	mov    %eax,-0xc(%ebp)
  102339:	eb 07                	jmp    102342 <ipc_send+0xe3>
  10233b:	c7 45 f4 00 00 00 00 	movl   $0x0,-0xc(%ebp)
  102342:	83 7d 10 00          	cmpl   $0x0,0x10(%ebp)
  102346:	74 08                	je     102350 <ipc_send+0xf1>
  102348:	8d 85 e8 fe ff ff    	lea    -0x118(%ebp),%eax
  10234e:	eb 05                	jmp    102355 <ipc_send+0xf6>
  102350:	b8 00 00 00 00       	mov    $0x0,%eax
  102355:	83 ec 0c             	sub    $0xc,%esp
  102358:	6a 00                	push   $0x0
  10235a:	ff 75 10             	push   0x10(%ebp)
  10235d:	50                   	push   %eax
  10235e:	ff 75 f4             	push   -0xc(%ebp)
  102361:	ff 75 f0             	push   -0x10(%ebp)
  102364:	e8 42 f7 ff ff       	call   101aab <mailbox_enqueue>
  102369:	83 c4 20             	add    $0x20,%esp
  10236c:	c9                   	leave
  10236d:	c3                   	ret

0010236e <ipc_recv>:
  10236e:	55                   	push   %ebp
  10236f:	89 e5                	mov    %esp,%ebp
  102371:	81 ec 38 01 00 00    	sub    $0x138,%esp
  102377:	a1 20 12 13 00       	mov    0x131220,%eax
  10237c:	85 c0                	test   %eax,%eax
  10237e:	75 0a                	jne    10238a <ipc_recv+0x1c>
  102380:	b8 ff ff ff ff       	mov    $0xffffffff,%eax
  102385:	e9 64 01 00 00       	jmp    1024ee <ipc_recv+0x180>
  10238a:	e8 18 2f 00 00       	call   1052a7 <process_current>
  10238f:	89 45 f4             	mov    %eax,-0xc(%ebp)
  102392:	83 7d f4 00          	cmpl   $0x0,-0xc(%ebp)
  102396:	75 0a                	jne    1023a2 <ipc_recv+0x34>
  102398:	b8 ff ff ff ff       	mov    $0xffffffff,%eax
  10239d:	e9 4c 01 00 00       	jmp    1024ee <ipc_recv+0x180>
  1023a2:	83 7d 10 00          	cmpl   $0x0,0x10(%ebp)
  1023a6:	75 02                	jne    1023aa <ipc_recv+0x3c>
  1023a8:	eb 10                	jmp    1023ba <ipc_recv+0x4c>
  1023aa:	83 7d 0c 00          	cmpl   $0x0,0xc(%ebp)
  1023ae:	75 0a                	jne    1023ba <ipc_recv+0x4c>
  1023b0:	b8 ff ff ff ff       	mov    $0xffffffff,%eax
  1023b5:	e9 34 01 00 00       	jmp    1024ee <ipc_recv+0x180>
  1023ba:	83 ec 04             	sub    $0x4,%esp
  1023bd:	8d 85 d4 fe ff ff    	lea    -0x12c(%ebp),%eax
  1023c3:	50                   	push   %eax
  1023c4:	ff 75 08             	push   0x8(%ebp)
  1023c7:	ff 75 f4             	push   -0xc(%ebp)
  1023ca:	e8 fa f4 ff ff       	call   1018c9 <mailbox_try_dequeue>
  1023cf:	83 c4 10             	add    $0x10,%esp
  1023d2:	85 c0                	test   %eax,%eax
  1023d4:	0f 84 87 00 00 00    	je     102461 <ipc_recv+0xf3>
  1023da:	8b 85 d8 fe ff ff    	mov    -0x128(%ebp),%eax
  1023e0:	83 ec 04             	sub    $0x4,%esp
  1023e3:	6a 02                	push   $0x2
  1023e5:	50                   	push   %eax
  1023e6:	ff 75 f4             	push   -0xc(%ebp)
  1023e9:	e8 6a f8 ff ff       	call   101c58 <capability_check>
  1023ee:	83 c4 10             	add    $0x10,%esp
  1023f1:	85 c0                	test   %eax,%eax
  1023f3:	75 1c                	jne    102411 <ipc_recv+0xa3>
  1023f5:	83 ec 04             	sub    $0x4,%esp
  1023f8:	68 28 10 12 00       	push   $0x121028
  1023fd:	6a 02                	push   $0x2
  1023ff:	68 56 10 12 00       	push   $0x121056
  102404:	e8 48 5f 00 00       	call   108351 <klog_emit_tagged>
  102409:	83 c4 10             	add    $0x10,%esp
  10240c:	e9 d8 00 00 00       	jmp    1024e9 <ipc_recv+0x17b>
  102411:	8b 85 e0 fe ff ff    	mov    -0x120(%ebp),%eax
  102417:	8b 55 10             	mov    0x10(%ebp),%edx
  10241a:	39 c2                	cmp    %eax,%edx
  10241c:	0f 46 c2             	cmovbe %edx,%eax
  10241f:	89 45 e8             	mov    %eax,-0x18(%ebp)
  102422:	83 7d 0c 00          	cmpl   $0x0,0xc(%ebp)
  102426:	74 21                	je     102449 <ipc_recv+0xdb>
  102428:	83 7d e8 00          	cmpl   $0x0,-0x18(%ebp)
  10242c:	74 1b                	je     102449 <ipc_recv+0xdb>
  10242e:	83 ec 04             	sub    $0x4,%esp
  102431:	ff 75 e8             	push   -0x18(%ebp)
  102434:	8d 85 d4 fe ff ff    	lea    -0x12c(%ebp),%eax
  10243a:	83 c0 10             	add    $0x10,%eax
  10243d:	50                   	push   %eax
  10243e:	ff 75 0c             	push   0xc(%ebp)
  102441:	e8 51 f1 ff ff       	call   101597 <buffer_copy>
  102446:	83 c4 10             	add    $0x10,%esp
  102449:	8b 45 f4             	mov    -0xc(%ebp),%eax
  10244c:	c7 80 38 10 00 00 00 	movl   $0x0,0x1038(%eax)
  102453:	00 00 00 
  102456:	8b 85 e0 fe ff ff    	mov    -0x120(%ebp),%eax
  10245c:	e9 8d 00 00 00       	jmp    1024ee <ipc_recv+0x180>
  102461:	8b 45 f4             	mov    -0xc(%ebp),%eax
  102464:	8b 80 40 10 00 00    	mov    0x1040(%eax),%eax
  10246a:	85 c0                	test   %eax,%eax
  10246c:	75 07                	jne    102475 <ipc_recv+0x107>
  10246e:	b8 00 00 00 00       	mov    $0x0,%eax
  102473:	eb 79                	jmp    1024ee <ipc_recv+0x180>
  102475:	8b 45 f4             	mov    -0xc(%ebp),%eax
  102478:	05 64 10 00 00       	add    $0x1064,%eax
  10247d:	89 45 f0             	mov    %eax,-0x10(%ebp)
  102480:	8b 45 f0             	mov    -0x10(%ebp),%eax
  102483:	83 ec 08             	sub    $0x8,%esp
  102486:	8d 55 e4             	lea    -0x1c(%ebp),%edx
  102489:	52                   	push   %edx
  10248a:	50                   	push   %eax
  10248b:	e8 e5 91 01 00       	call   11b675 <spinlock_lock_irqsave>
  102490:	83 c4 10             	add    $0x10,%esp
  102493:	8b 45 f4             	mov    -0xc(%ebp),%eax
  102496:	8b 00                	mov    (%eax),%eax
  102498:	83 ec 08             	sub    $0x8,%esp
  10249b:	50                   	push   %eax
  10249c:	ff 75 f0             	push   -0x10(%ebp)
  10249f:	e8 e7 f2 ff ff       	call   10178b <mailbox_push_waiter>
  1024a4:	83 c4 10             	add    $0x10,%esp
  1024a7:	89 45 ec             	mov    %eax,-0x14(%ebp)
  1024aa:	8b 55 e4             	mov    -0x1c(%ebp),%edx
  1024ad:	8b 45 f0             	mov    -0x10(%ebp),%eax
  1024b0:	83 ec 08             	sub    $0x8,%esp
  1024b3:	52                   	push   %edx
  1024b4:	50                   	push   %eax
  1024b5:	e8 eb 91 01 00       	call   11b6a5 <spinlock_unlock_irqrestore>
  1024ba:	83 c4 10             	add    $0x10,%esp
  1024bd:	83 7d ec 00          	cmpl   $0x0,-0x14(%ebp)
  1024c1:	75 07                	jne    1024ca <ipc_recv+0x15c>
  1024c3:	b8 ff ff ff ff       	mov    $0xffffffff,%eax
  1024c8:	eb 24                	jmp    1024ee <ipc_recv+0x180>
  1024ca:	8b 45 f4             	mov    -0xc(%ebp),%eax
  1024cd:	c7 80 38 10 00 00 01 	movl   $0x1,0x1038(%eax)
  1024d4:	00 00 00 
  1024d7:	e8 19 2e 00 00       	call   1052f5 <process_block_current>
  1024dc:	8b 45 f4             	mov    -0xc(%ebp),%eax
  1024df:	c7 80 38 10 00 00 00 	movl   $0x0,0x1038(%eax)
  1024e6:	00 00 00 
  1024e9:	e9 cc fe ff ff       	jmp    1023ba <ipc_recv+0x4c>
  1024ee:	c9                   	leave
  1024ef:	c3                   	ret

001024f0 <ipc_share>:
  1024f0:	55                   	push   %ebp
  1024f1:	89 e5                	mov    %esp,%ebp
  1024f3:	83 ec 28             	sub    $0x28,%esp
  1024f6:	a1 20 12 13 00       	mov    0x131220,%eax
  1024fb:	85 c0                	test   %eax,%eax
  1024fd:	75 0a                	jne    102509 <ipc_share+0x19>
  1024ff:	b8 ff ff ff ff       	mov    $0xffffffff,%eax
  102504:	e9 c2 02 00 00       	jmp    1027cb <ipc_share+0x2db>
  102509:	83 7d 08 00          	cmpl   $0x0,0x8(%ebp)
  10250d:	7e 0c                	jle    10251b <ipc_share+0x2b>
  10250f:	83 7d 0c 00          	cmpl   $0x0,0xc(%ebp)
  102513:	74 06                	je     10251b <ipc_share+0x2b>
  102515:	83 7d 10 00          	cmpl   $0x0,0x10(%ebp)
  102519:	75 0a                	jne    102525 <ipc_share+0x35>
  10251b:	b8 ff ff ff ff       	mov    $0xffffffff,%eax
  102520:	e9 a6 02 00 00       	jmp    1027cb <ipc_share+0x2db>
  102525:	8b 45 0c             	mov    0xc(%ebp),%eax
  102528:	89 45 ec             	mov    %eax,-0x14(%ebp)
  10252b:	8b 45 ec             	mov    -0x14(%ebp),%eax
  10252e:	25 ff 0f 00 00       	and    $0xfff,%eax
  102533:	85 c0                	test   %eax,%eax
  102535:	74 0a                	je     102541 <ipc_share+0x51>
  102537:	b8 ff ff ff ff       	mov    $0xffffffff,%eax
  10253c:	e9 8a 02 00 00       	jmp    1027cb <ipc_share+0x2db>
  102541:	8b 45 10             	mov    0x10(%ebp),%eax
  102544:	c1 e0 0c             	shl    $0xc,%eax
  102547:	89 c2                	mov    %eax,%edx
  102549:	8b 45 ec             	mov    -0x14(%ebp),%eax
  10254c:	01 d0                	add    %edx,%eax
  10254e:	89 45 e8             	mov    %eax,-0x18(%ebp)
  102551:	8b 45 e8             	mov    -0x18(%ebp),%eax
  102554:	3b 45 ec             	cmp    -0x14(%ebp),%eax
  102557:	72 09                	jb     102562 <ipc_share+0x72>
  102559:	81 7d e8 00 00 00 80 	cmpl   $0x80000000,-0x18(%ebp)
  102560:	76 0a                	jbe    10256c <ipc_share+0x7c>
  102562:	b8 ff ff ff ff       	mov    $0xffffffff,%eax
  102567:	e9 5f 02 00 00       	jmp    1027cb <ipc_share+0x2db>
  10256c:	e8 36 2d 00 00       	call   1052a7 <process_current>
  102571:	89 45 e4             	mov    %eax,-0x1c(%ebp)
  102574:	83 7d e4 00          	cmpl   $0x0,-0x1c(%ebp)
  102578:	75 0a                	jne    102584 <ipc_share+0x94>
  10257a:	b8 ff ff ff ff       	mov    $0xffffffff,%eax
  10257f:	e9 47 02 00 00       	jmp    1027cb <ipc_share+0x2db>
  102584:	83 ec 04             	sub    $0x4,%esp
  102587:	6a 04                	push   $0x4
  102589:	ff 75 08             	push   0x8(%ebp)
  10258c:	ff 75 e4             	push   -0x1c(%ebp)
  10258f:	e8 c4 f6 ff ff       	call   101c58 <capability_check>
  102594:	83 c4 10             	add    $0x10,%esp
  102597:	85 c0                	test   %eax,%eax
  102599:	75 0a                	jne    1025a5 <ipc_share+0xb5>
  10259b:	b8 ff ff ff ff       	mov    $0xffffffff,%eax
  1025a0:	e9 26 02 00 00       	jmp    1027cb <ipc_share+0x2db>
  1025a5:	83 ec 0c             	sub    $0xc,%esp
  1025a8:	ff 75 08             	push   0x8(%ebp)
  1025ab:	e8 f1 2b 00 00       	call   1051a1 <process_lookup>
  1025b0:	83 c4 10             	add    $0x10,%esp
  1025b3:	89 45 e0             	mov    %eax,-0x20(%ebp)
  1025b6:	83 7d e0 00          	cmpl   $0x0,-0x20(%ebp)
  1025ba:	75 0a                	jne    1025c6 <ipc_share+0xd6>
  1025bc:	b8 ff ff ff ff       	mov    $0xffffffff,%eax
  1025c1:	e9 05 02 00 00       	jmp    1027cb <ipc_share+0x2db>
  1025c6:	83 ec 08             	sub    $0x8,%esp
  1025c9:	8d 45 dc             	lea    -0x24(%ebp),%eax
  1025cc:	50                   	push   %eax
  1025cd:	68 04 0c 13 00       	push   $0x130c04
  1025d2:	e8 9e 90 01 00       	call   11b675 <spinlock_lock_irqsave>
  1025d7:	83 c4 10             	add    $0x10,%esp
  1025da:	c7 45 f4 ff ff ff ff 	movl   $0xffffffff,-0xc(%ebp)
  1025e1:	c7 45 f0 00 00 00 00 	movl   $0x0,-0x10(%ebp)
  1025e8:	eb 24                	jmp    10260e <ipc_share+0x11e>
  1025ea:	8b 55 f0             	mov    -0x10(%ebp),%edx
  1025ed:	89 d0                	mov    %edx,%eax
  1025ef:	01 c0                	add    %eax,%eax
  1025f1:	01 d0                	add    %edx,%eax
  1025f3:	c1 e0 03             	shl    $0x3,%eax
  1025f6:	05 20 0c 13 00       	add    $0x130c20,%eax
  1025fb:	0f b6 00             	movzbl (%eax),%eax
  1025fe:	84 c0                	test   %al,%al
  102600:	75 08                	jne    10260a <ipc_share+0x11a>
  102602:	8b 45 f0             	mov    -0x10(%ebp),%eax
  102605:	89 45 f4             	mov    %eax,-0xc(%ebp)
  102608:	eb 0a                	jmp    102614 <ipc_share+0x124>
  10260a:	83 45 f0 01          	addl   $0x1,-0x10(%ebp)
  10260e:	83 7d f0 3f          	cmpl   $0x3f,-0x10(%ebp)
  102612:	76 d6                	jbe    1025ea <ipc_share+0xfa>
  102614:	83 7d f4 00          	cmpl   $0x0,-0xc(%ebp)
  102618:	79 1e                	jns    102638 <ipc_share+0x148>
  10261a:	8b 45 dc             	mov    -0x24(%ebp),%eax
  10261d:	83 ec 08             	sub    $0x8,%esp
  102620:	50                   	push   %eax
  102621:	68 04 0c 13 00       	push   $0x130c04
  102626:	e8 7a 90 01 00       	call   11b6a5 <spinlock_unlock_irqrestore>
  10262b:	83 c4 10             	add    $0x10,%esp
  10262e:	b8 ff ff ff ff       	mov    $0xffffffff,%eax
  102633:	e9 93 01 00 00       	jmp    1027cb <ipc_share+0x2db>
  102638:	8b 55 f4             	mov    -0xc(%ebp),%edx
  10263b:	89 d0                	mov    %edx,%eax
  10263d:	01 c0                	add    %eax,%eax
  10263f:	01 d0                	add    %edx,%eax
  102641:	c1 e0 03             	shl    $0x3,%eax
  102644:	05 20 0c 13 00       	add    $0x130c20,%eax
  102649:	c6 00 01             	movb   $0x1,(%eax)
  10264c:	8b 45 e4             	mov    -0x1c(%ebp),%eax
  10264f:	8b 08                	mov    (%eax),%ecx
  102651:	8b 55 f4             	mov    -0xc(%ebp),%edx
  102654:	89 d0                	mov    %edx,%eax
  102656:	01 c0                	add    %eax,%eax
  102658:	01 d0                	add    %edx,%eax
  10265a:	c1 e0 03             	shl    $0x3,%eax
  10265d:	05 24 0c 13 00       	add    $0x130c24,%eax
  102662:	89 08                	mov    %ecx,(%eax)
  102664:	8b 55 f4             	mov    -0xc(%ebp),%edx
  102667:	89 d0                	mov    %edx,%eax
  102669:	01 c0                	add    %eax,%eax
  10266b:	01 d0                	add    %edx,%eax
  10266d:	c1 e0 03             	shl    $0x3,%eax
  102670:	8d 90 28 0c 13 00    	lea    0x130c28(%eax),%edx
  102676:	8b 45 08             	mov    0x8(%ebp),%eax
  102679:	89 02                	mov    %eax,(%edx)
  10267b:	8b 55 f4             	mov    -0xc(%ebp),%edx
  10267e:	89 d0                	mov    %edx,%eax
  102680:	01 c0                	add    %eax,%eax
  102682:	01 d0                	add    %edx,%eax
  102684:	c1 e0 03             	shl    $0x3,%eax
  102687:	8d 90 2c 0c 13 00    	lea    0x130c2c(%eax),%edx
  10268d:	8b 45 ec             	mov    -0x14(%ebp),%eax
  102690:	89 02                	mov    %eax,(%edx)
  102692:	8b 55 f4             	mov    -0xc(%ebp),%edx
  102695:	89 d0                	mov    %edx,%eax
  102697:	01 c0                	add    %eax,%eax
  102699:	01 d0                	add    %edx,%eax
  10269b:	c1 e0 03             	shl    $0x3,%eax
  10269e:	8d 90 30 0c 13 00    	lea    0x130c30(%eax),%edx
  1026a4:	8b 45 10             	mov    0x10(%ebp),%eax
  1026a7:	89 02                	mov    %eax,(%edx)
  1026a9:	8b 55 f4             	mov    -0xc(%ebp),%edx
  1026ac:	89 d0                	mov    %edx,%eax
  1026ae:	01 c0                	add    %eax,%eax
  1026b0:	01 d0                	add    %edx,%eax
  1026b2:	c1 e0 03             	shl    $0x3,%eax
  1026b5:	05 34 0c 13 00       	add    $0x130c34,%eax
  1026ba:	c7 00 00 00 00 00    	movl   $0x0,(%eax)
  1026c0:	83 ec 08             	sub    $0x8,%esp
  1026c3:	ff 75 f4             	push   -0xc(%ebp)
  1026c6:	ff 75 e4             	push   -0x1c(%ebp)
  1026c9:	e8 4a f6 ff ff       	call   101d18 <share_attach_to_process>
  1026ce:	83 c4 10             	add    $0x10,%esp
  1026d1:	85 c0                	test   %eax,%eax
  1026d3:	78 19                	js     1026ee <ipc_share+0x1fe>
  1026d5:	83 ec 08             	sub    $0x8,%esp
  1026d8:	ff 75 f4             	push   -0xc(%ebp)
  1026db:	ff 75 e0             	push   -0x20(%ebp)
  1026de:	e8 35 f6 ff ff       	call   101d18 <share_attach_to_process>
  1026e3:	83 c4 10             	add    $0x10,%esp
  1026e6:	85 c0                	test   %eax,%eax
  1026e8:	0f 89 c4 00 00 00    	jns    1027b2 <ipc_share+0x2c2>
  1026ee:	83 ec 08             	sub    $0x8,%esp
  1026f1:	ff 75 f4             	push   -0xc(%ebp)
  1026f4:	ff 75 e4             	push   -0x1c(%ebp)
  1026f7:	e8 ad f6 ff ff       	call   101da9 <share_detach_from_process>
  1026fc:	83 c4 10             	add    $0x10,%esp
  1026ff:	83 ec 08             	sub    $0x8,%esp
  102702:	ff 75 f4             	push   -0xc(%ebp)
  102705:	ff 75 e0             	push   -0x20(%ebp)
  102708:	e8 9c f6 ff ff       	call   101da9 <share_detach_from_process>
  10270d:	83 c4 10             	add    $0x10,%esp
  102710:	8b 55 f4             	mov    -0xc(%ebp),%edx
  102713:	89 d0                	mov    %edx,%eax
  102715:	01 c0                	add    %eax,%eax
  102717:	01 d0                	add    %edx,%eax
  102719:	c1 e0 03             	shl    $0x3,%eax
  10271c:	05 20 0c 13 00       	add    $0x130c20,%eax
  102721:	c6 00 00             	movb   $0x0,(%eax)
  102724:	8b 55 f4             	mov    -0xc(%ebp),%edx
  102727:	89 d0                	mov    %edx,%eax
  102729:	01 c0                	add    %eax,%eax
  10272b:	01 d0                	add    %edx,%eax
  10272d:	c1 e0 03             	shl    $0x3,%eax
  102730:	05 24 0c 13 00       	add    $0x130c24,%eax
  102735:	c7 00 ff ff ff ff    	movl   $0xffffffff,(%eax)
  10273b:	8b 55 f4             	mov    -0xc(%ebp),%edx
  10273e:	89 d0                	mov    %edx,%eax
  102740:	01 c0                	add    %eax,%eax
  102742:	01 d0                	add    %edx,%eax
  102744:	c1 e0 03             	shl    $0x3,%eax
  102747:	05 28 0c 13 00       	add    $0x130c28,%eax
  10274c:	c7 00 ff ff ff ff    	movl   $0xffffffff,(%eax)
  102752:	8b 55 f4             	mov    -0xc(%ebp),%edx
  102755:	89 d0                	mov    %edx,%eax
  102757:	01 c0                	add    %eax,%eax
  102759:	01 d0                	add    %edx,%eax
  10275b:	c1 e0 03             	shl    $0x3,%eax
  10275e:	05 2c 0c 13 00       	add    $0x130c2c,%eax
  102763:	c7 00 00 00 00 00    	movl   $0x0,(%eax)
  102769:	8b 55 f4             	mov    -0xc(%ebp),%edx
  10276c:	89 d0                	mov    %edx,%eax
  10276e:	01 c0                	add    %eax,%eax
  102770:	01 d0                	add    %edx,%eax
  102772:	c1 e0 03             	shl    $0x3,%eax
  102775:	05 30 0c 13 00       	add    $0x130c30,%eax
  10277a:	c7 00 00 00 00 00    	movl   $0x0,(%eax)
  102780:	8b 55 f4             	mov    -0xc(%ebp),%edx
  102783:	89 d0                	mov    %edx,%eax
  102785:	01 c0                	add    %eax,%eax
  102787:	01 d0                	add    %edx,%eax
  102789:	c1 e0 03             	shl    $0x3,%eax
  10278c:	05 34 0c 13 00       	add    $0x130c34,%eax
  102791:	c7 00 00 00 00 00    	movl   $0x0,(%eax)
  102797:	8b 45 dc             	mov    -0x24(%ebp),%eax
  10279a:	83 ec 08             	sub    $0x8,%esp
  10279d:	50                   	push   %eax
  10279e:	68 04 0c 13 00       	push   $0x130c04
  1027a3:	e8 fd 8e 01 00       	call   11b6a5 <spinlock_unlock_irqrestore>
  1027a8:	83 c4 10             	add    $0x10,%esp
  1027ab:	b8 ff ff ff ff       	mov    $0xffffffff,%eax
  1027b0:	eb 19                	jmp    1027cb <ipc_share+0x2db>
  1027b2:	8b 45 dc             	mov    -0x24(%ebp),%eax
  1027b5:	83 ec 08             	sub    $0x8,%esp
  1027b8:	50                   	push   %eax
  1027b9:	68 04 0c 13 00       	push   $0x130c04
  1027be:	e8 e2 8e 01 00       	call   11b6a5 <spinlock_unlock_irqrestore>
  1027c3:	83 c4 10             	add    $0x10,%esp
  1027c6:	b8 00 00 00 00       	mov    $0x0,%eax
  1027cb:	c9                   	leave
  1027cc:	c3                   	ret

001027cd <ipc_cap_grant>:
  1027cd:	55                   	push   %ebp
  1027ce:	89 e5                	mov    %esp,%ebp
  1027d0:	83 ec 18             	sub    $0x18,%esp
  1027d3:	a1 20 12 13 00       	mov    0x131220,%eax
  1027d8:	85 c0                	test   %eax,%eax
  1027da:	75 0a                	jne    1027e6 <ipc_cap_grant+0x19>
  1027dc:	b8 ff ff ff ff       	mov    $0xffffffff,%eax
  1027e1:	e9 46 01 00 00       	jmp    10292c <ipc_cap_grant+0x15f>
  1027e6:	83 7d 08 00          	cmpl   $0x0,0x8(%ebp)
  1027ea:	7e 0c                	jle    1027f8 <ipc_cap_grant+0x2b>
  1027ec:	83 7d 0c 00          	cmpl   $0x0,0xc(%ebp)
  1027f0:	7e 06                	jle    1027f8 <ipc_cap_grant+0x2b>
  1027f2:	83 7d 10 00          	cmpl   $0x0,0x10(%ebp)
  1027f6:	75 0a                	jne    102802 <ipc_cap_grant+0x35>
  1027f8:	b8 ff ff ff ff       	mov    $0xffffffff,%eax
  1027fd:	e9 2a 01 00 00       	jmp    10292c <ipc_cap_grant+0x15f>
  102802:	83 ec 0c             	sub    $0xc,%esp
  102805:	ff 75 08             	push   0x8(%ebp)
  102808:	e8 94 29 00 00       	call   1051a1 <process_lookup>
  10280d:	83 c4 10             	add    $0x10,%esp
  102810:	89 45 ec             	mov    %eax,-0x14(%ebp)
  102813:	83 7d ec 00          	cmpl   $0x0,-0x14(%ebp)
  102817:	75 0a                	jne    102823 <ipc_cap_grant+0x56>
  102819:	b8 ff ff ff ff       	mov    $0xffffffff,%eax
  10281e:	e9 09 01 00 00       	jmp    10292c <ipc_cap_grant+0x15f>
  102823:	83 ec 08             	sub    $0x8,%esp
  102826:	8d 45 e8             	lea    -0x18(%ebp),%eax
  102829:	50                   	push   %eax
  10282a:	68 00 0c 13 00       	push   $0x130c00
  10282f:	e8 41 8e 01 00       	call   11b675 <spinlock_lock_irqsave>
  102834:	83 c4 10             	add    $0x10,%esp
  102837:	83 ec 08             	sub    $0x8,%esp
  10283a:	ff 75 0c             	push   0xc(%ebp)
  10283d:	ff 75 ec             	push   -0x14(%ebp)
  102840:	e8 92 f3 ff ff       	call   101bd7 <capability_find_slot>
  102845:	83 c4 10             	add    $0x10,%esp
  102848:	89 45 f4             	mov    %eax,-0xc(%ebp)
  10284b:	83 7d f4 00          	cmpl   $0x0,-0xc(%ebp)
  10284f:	0f 85 8c 00 00 00    	jne    1028e1 <ipc_cap_grant+0x114>
  102855:	c7 45 f0 00 00 00 00 	movl   $0x0,-0x10(%ebp)
  10285c:	eb 7a                	jmp    1028d8 <ipc_cap_grant+0x10b>
  10285e:	8b 4d ec             	mov    -0x14(%ebp),%ecx
  102861:	8b 55 f0             	mov    -0x10(%ebp),%edx
  102864:	89 d0                	mov    %edx,%eax
  102866:	01 c0                	add    %eax,%eax
  102868:	01 d0                	add    %edx,%eax
  10286a:	c1 e0 02             	shl    $0x2,%eax
  10286d:	01 c8                	add    %ecx,%eax
  10286f:	05 90 21 00 00       	add    $0x2190,%eax
  102874:	0f b6 00             	movzbl (%eax),%eax
  102877:	84 c0                	test   %al,%al
  102879:	75 59                	jne    1028d4 <ipc_cap_grant+0x107>
  10287b:	8b 55 f0             	mov    -0x10(%ebp),%edx
  10287e:	89 d0                	mov    %edx,%eax
  102880:	01 c0                	add    %eax,%eax
  102882:	01 d0                	add    %edx,%eax
  102884:	c1 e0 02             	shl    $0x2,%eax
  102887:	8d 90 90 21 00 00    	lea    0x2190(%eax),%edx
  10288d:	8b 45 ec             	mov    -0x14(%ebp),%eax
  102890:	01 d0                	add    %edx,%eax
  102892:	89 45 f4             	mov    %eax,-0xc(%ebp)
  102895:	8b 45 f4             	mov    -0xc(%ebp),%eax
  102898:	c6 00 01             	movb   $0x1,(%eax)
  10289b:	8b 45 f4             	mov    -0xc(%ebp),%eax
  10289e:	8b 55 0c             	mov    0xc(%ebp),%edx
  1028a1:	89 50 04             	mov    %edx,0x4(%eax)
  1028a4:	8b 45 f4             	mov    -0xc(%ebp),%eax
  1028a7:	c7 40 08 00 00 00 00 	movl   $0x0,0x8(%eax)
  1028ae:	8b 45 ec             	mov    -0x14(%ebp),%eax
  1028b1:	0f b6 80 50 22 00 00 	movzbl 0x2250(%eax),%eax
  1028b8:	3c 0f                	cmp    $0xf,%al
  1028ba:	77 24                	ja     1028e0 <ipc_cap_grant+0x113>
  1028bc:	8b 45 ec             	mov    -0x14(%ebp),%eax
  1028bf:	0f b6 80 50 22 00 00 	movzbl 0x2250(%eax),%eax
  1028c6:	8d 50 01             	lea    0x1(%eax),%edx
  1028c9:	8b 45 ec             	mov    -0x14(%ebp),%eax
  1028cc:	88 90 50 22 00 00    	mov    %dl,0x2250(%eax)
  1028d2:	eb 0c                	jmp    1028e0 <ipc_cap_grant+0x113>
  1028d4:	83 45 f0 01          	addl   $0x1,-0x10(%ebp)
  1028d8:	83 7d f0 0f          	cmpl   $0xf,-0x10(%ebp)
  1028dc:	76 80                	jbe    10285e <ipc_cap_grant+0x91>
  1028de:	eb 01                	jmp    1028e1 <ipc_cap_grant+0x114>
  1028e0:	90                   	nop
  1028e1:	83 7d f4 00          	cmpl   $0x0,-0xc(%ebp)
  1028e5:	75 1b                	jne    102902 <ipc_cap_grant+0x135>
  1028e7:	8b 45 e8             	mov    -0x18(%ebp),%eax
  1028ea:	83 ec 08             	sub    $0x8,%esp
  1028ed:	50                   	push   %eax
  1028ee:	68 00 0c 13 00       	push   $0x130c00
  1028f3:	e8 ad 8d 01 00       	call   11b6a5 <spinlock_unlock_irqrestore>
  1028f8:	83 c4 10             	add    $0x10,%esp
  1028fb:	b8 ff ff ff ff       	mov    $0xffffffff,%eax
  102900:	eb 2a                	jmp    10292c <ipc_cap_grant+0x15f>
  102902:	8b 45 f4             	mov    -0xc(%ebp),%eax
  102905:	8b 40 08             	mov    0x8(%eax),%eax
  102908:	0b 45 10             	or     0x10(%ebp),%eax
  10290b:	89 c2                	mov    %eax,%edx
  10290d:	8b 45 f4             	mov    -0xc(%ebp),%eax
  102910:	89 50 08             	mov    %edx,0x8(%eax)
  102913:	8b 45 e8             	mov    -0x18(%ebp),%eax
  102916:	83 ec 08             	sub    $0x8,%esp
  102919:	50                   	push   %eax
  10291a:	68 00 0c 13 00       	push   $0x130c00
  10291f:	e8 81 8d 01 00       	call   11b6a5 <spinlock_unlock_irqrestore>
  102924:	83 c4 10             	add    $0x10,%esp
  102927:	b8 00 00 00 00       	mov    $0x0,%eax
  10292c:	c9                   	leave
  10292d:	c3                   	ret

0010292e <ipc_cap_revoke>:
  10292e:	55                   	push   %ebp
  10292f:	89 e5                	mov    %esp,%ebp
  102931:	83 ec 18             	sub    $0x18,%esp
  102934:	a1 20 12 13 00       	mov    0x131220,%eax
  102939:	85 c0                	test   %eax,%eax
  10293b:	75 0a                	jne    102947 <ipc_cap_revoke+0x19>
  10293d:	b8 ff ff ff ff       	mov    $0xffffffff,%eax
  102942:	e9 d5 00 00 00       	jmp    102a1c <ipc_cap_revoke+0xee>
  102947:	83 7d 08 00          	cmpl   $0x0,0x8(%ebp)
  10294b:	7e 0c                	jle    102959 <ipc_cap_revoke+0x2b>
  10294d:	83 7d 0c 00          	cmpl   $0x0,0xc(%ebp)
  102951:	7e 06                	jle    102959 <ipc_cap_revoke+0x2b>
  102953:	83 7d 10 00          	cmpl   $0x0,0x10(%ebp)
  102957:	75 0a                	jne    102963 <ipc_cap_revoke+0x35>
  102959:	b8 ff ff ff ff       	mov    $0xffffffff,%eax
  10295e:	e9 b9 00 00 00       	jmp    102a1c <ipc_cap_revoke+0xee>
  102963:	83 ec 0c             	sub    $0xc,%esp
  102966:	ff 75 08             	push   0x8(%ebp)
  102969:	e8 33 28 00 00       	call   1051a1 <process_lookup>
  10296e:	83 c4 10             	add    $0x10,%esp
  102971:	89 45 f4             	mov    %eax,-0xc(%ebp)
  102974:	83 7d f4 00          	cmpl   $0x0,-0xc(%ebp)
  102978:	75 0a                	jne    102984 <ipc_cap_revoke+0x56>
  10297a:	b8 ff ff ff ff       	mov    $0xffffffff,%eax
  10297f:	e9 98 00 00 00       	jmp    102a1c <ipc_cap_revoke+0xee>
  102984:	83 ec 08             	sub    $0x8,%esp
  102987:	8d 45 ec             	lea    -0x14(%ebp),%eax
  10298a:	50                   	push   %eax
  10298b:	68 00 0c 13 00       	push   $0x130c00
  102990:	e8 e0 8c 01 00       	call   11b675 <spinlock_lock_irqsave>
  102995:	83 c4 10             	add    $0x10,%esp
  102998:	83 ec 08             	sub    $0x8,%esp
  10299b:	ff 75 0c             	push   0xc(%ebp)
  10299e:	ff 75 f4             	push   -0xc(%ebp)
  1029a1:	e8 31 f2 ff ff       	call   101bd7 <capability_find_slot>
  1029a6:	83 c4 10             	add    $0x10,%esp
  1029a9:	89 45 f0             	mov    %eax,-0x10(%ebp)
  1029ac:	83 7d f0 00          	cmpl   $0x0,-0x10(%ebp)
  1029b0:	74 51                	je     102a03 <ipc_cap_revoke+0xd5>
  1029b2:	8b 45 f0             	mov    -0x10(%ebp),%eax
  1029b5:	8b 40 08             	mov    0x8(%eax),%eax
  1029b8:	8b 55 10             	mov    0x10(%ebp),%edx
  1029bb:	f7 d2                	not    %edx
  1029bd:	21 c2                	and    %eax,%edx
  1029bf:	8b 45 f0             	mov    -0x10(%ebp),%eax
  1029c2:	89 50 08             	mov    %edx,0x8(%eax)
  1029c5:	8b 45 f0             	mov    -0x10(%ebp),%eax
  1029c8:	8b 40 08             	mov    0x8(%eax),%eax
  1029cb:	85 c0                	test   %eax,%eax
  1029cd:	75 34                	jne    102a03 <ipc_cap_revoke+0xd5>
  1029cf:	8b 45 f0             	mov    -0x10(%ebp),%eax
  1029d2:	c6 00 00             	movb   $0x0,(%eax)
  1029d5:	8b 45 f0             	mov    -0x10(%ebp),%eax
  1029d8:	c7 40 04 ff ff ff ff 	movl   $0xffffffff,0x4(%eax)
  1029df:	8b 45 f4             	mov    -0xc(%ebp),%eax
  1029e2:	0f b6 80 50 22 00 00 	movzbl 0x2250(%eax),%eax
  1029e9:	84 c0                	test   %al,%al
  1029eb:	74 16                	je     102a03 <ipc_cap_revoke+0xd5>
  1029ed:	8b 45 f4             	mov    -0xc(%ebp),%eax
  1029f0:	0f b6 80 50 22 00 00 	movzbl 0x2250(%eax),%eax
  1029f7:	8d 50 ff             	lea    -0x1(%eax),%edx
  1029fa:	8b 45 f4             	mov    -0xc(%ebp),%eax
  1029fd:	88 90 50 22 00 00    	mov    %dl,0x2250(%eax)
  102a03:	8b 45 ec             	mov    -0x14(%ebp),%eax
  102a06:	83 ec 08             	sub    $0x8,%esp
  102a09:	50                   	push   %eax
  102a0a:	68 00 0c 13 00       	push   $0x130c00
  102a0f:	e8 91 8c 01 00       	call   11b6a5 <spinlock_unlock_irqrestore>
  102a14:	83 c4 10             	add    $0x10,%esp
  102a17:	b8 00 00 00 00       	mov    $0x0,%eax
  102a1c:	c9                   	leave
  102a1d:	c3                   	ret

00102a1e <ipc_cap_query>:
  102a1e:	55                   	push   %ebp
  102a1f:	89 e5                	mov    %esp,%ebp
  102a21:	83 ec 18             	sub    $0x18,%esp
  102a24:	a1 20 12 13 00       	mov    0x131220,%eax
  102a29:	85 c0                	test   %eax,%eax
  102a2b:	75 0a                	jne    102a37 <ipc_cap_query+0x19>
  102a2d:	b8 ff ff ff ff       	mov    $0xffffffff,%eax
  102a32:	e9 99 00 00 00       	jmp    102ad0 <ipc_cap_query+0xb2>
  102a37:	83 7d 08 00          	cmpl   $0x0,0x8(%ebp)
  102a3b:	7e 06                	jle    102a43 <ipc_cap_query+0x25>
  102a3d:	83 7d 0c 00          	cmpl   $0x0,0xc(%ebp)
  102a41:	7f 0a                	jg     102a4d <ipc_cap_query+0x2f>
  102a43:	b8 ff ff ff ff       	mov    $0xffffffff,%eax
  102a48:	e9 83 00 00 00       	jmp    102ad0 <ipc_cap_query+0xb2>
  102a4d:	83 ec 0c             	sub    $0xc,%esp
  102a50:	ff 75 08             	push   0x8(%ebp)
  102a53:	e8 49 27 00 00       	call   1051a1 <process_lookup>
  102a58:	83 c4 10             	add    $0x10,%esp
  102a5b:	89 45 f0             	mov    %eax,-0x10(%ebp)
  102a5e:	83 7d f0 00          	cmpl   $0x0,-0x10(%ebp)
  102a62:	75 07                	jne    102a6b <ipc_cap_query+0x4d>
  102a64:	b8 ff ff ff ff       	mov    $0xffffffff,%eax
  102a69:	eb 65                	jmp    102ad0 <ipc_cap_query+0xb2>
  102a6b:	c7 45 f4 00 00 00 00 	movl   $0x0,-0xc(%ebp)
  102a72:	83 ec 08             	sub    $0x8,%esp
  102a75:	8d 45 e8             	lea    -0x18(%ebp),%eax
  102a78:	50                   	push   %eax
  102a79:	68 00 0c 13 00       	push   $0x130c00
  102a7e:	e8 f2 8b 01 00       	call   11b675 <spinlock_lock_irqsave>
  102a83:	83 c4 10             	add    $0x10,%esp
  102a86:	83 ec 08             	sub    $0x8,%esp
  102a89:	ff 75 0c             	push   0xc(%ebp)
  102a8c:	ff 75 f0             	push   -0x10(%ebp)
  102a8f:	e8 43 f1 ff ff       	call   101bd7 <capability_find_slot>
  102a94:	83 c4 10             	add    $0x10,%esp
  102a97:	89 45 ec             	mov    %eax,-0x14(%ebp)
  102a9a:	83 7d ec 00          	cmpl   $0x0,-0x14(%ebp)
  102a9e:	74 09                	je     102aa9 <ipc_cap_query+0x8b>
  102aa0:	8b 45 ec             	mov    -0x14(%ebp),%eax
  102aa3:	8b 40 08             	mov    0x8(%eax),%eax
  102aa6:	89 45 f4             	mov    %eax,-0xc(%ebp)
  102aa9:	8b 45 e8             	mov    -0x18(%ebp),%eax
  102aac:	83 ec 08             	sub    $0x8,%esp
  102aaf:	50                   	push   %eax
  102ab0:	68 00 0c 13 00       	push   $0x130c00
  102ab5:	e8 eb 8b 01 00       	call   11b6a5 <spinlock_unlock_irqrestore>
  102aba:	83 c4 10             	add    $0x10,%esp
  102abd:	83 7d 10 00          	cmpl   $0x0,0x10(%ebp)
  102ac1:	74 08                	je     102acb <ipc_cap_query+0xad>
  102ac3:	8b 45 10             	mov    0x10(%ebp),%eax
  102ac6:	8b 55 f4             	mov    -0xc(%ebp),%edx
  102ac9:	89 10                	mov    %edx,(%eax)
  102acb:	b8 00 00 00 00       	mov    $0x0,%eax
  102ad0:	c9                   	leave
  102ad1:	c3                   	ret

00102ad2 <local_min>:
  102ad2:	55                   	push   %ebp
  102ad3:	89 e5                	mov    %esp,%ebp
  102ad5:	8b 55 0c             	mov    0xc(%ebp),%edx
  102ad8:	8b 45 08             	mov    0x8(%ebp),%eax
  102adb:	39 c2                	cmp    %eax,%edx
  102add:	0f 46 c2             	cmovbe %edx,%eax
  102ae0:	5d                   	pop    %ebp
  102ae1:	c3                   	ret

00102ae2 <channel_name_copy>:
  102ae2:	55                   	push   %ebp
  102ae3:	89 e5                	mov    %esp,%ebp
  102ae5:	83 ec 10             	sub    $0x10,%esp
  102ae8:	83 7d 08 00          	cmpl   $0x0,0x8(%ebp)
  102aec:	74 5f                	je     102b4d <channel_name_copy+0x6b>
  102aee:	83 7d 0c 00          	cmpl   $0x0,0xc(%ebp)
  102af2:	74 59                	je     102b4d <channel_name_copy+0x6b>
  102af4:	8b 45 0c             	mov    0xc(%ebp),%eax
  102af7:	83 e8 01             	sub    $0x1,%eax
  102afa:	ff 75 14             	push   0x14(%ebp)
  102afd:	50                   	push   %eax
  102afe:	e8 cf ff ff ff       	call   102ad2 <local_min>
  102b03:	83 c4 08             	add    $0x8,%esp
  102b06:	89 45 f8             	mov    %eax,-0x8(%ebp)
  102b09:	c7 45 fc 00 00 00 00 	movl   $0x0,-0x4(%ebp)
  102b10:	eb 26                	jmp    102b38 <channel_name_copy+0x56>
  102b12:	83 7d 10 00          	cmpl   $0x0,0x10(%ebp)
  102b16:	74 0d                	je     102b25 <channel_name_copy+0x43>
  102b18:	8b 55 10             	mov    0x10(%ebp),%edx
  102b1b:	8b 45 fc             	mov    -0x4(%ebp),%eax
  102b1e:	01 d0                	add    %edx,%eax
  102b20:	0f b6 00             	movzbl (%eax),%eax
  102b23:	eb 05                	jmp    102b2a <channel_name_copy+0x48>
  102b25:	b8 00 00 00 00       	mov    $0x0,%eax
  102b2a:	8b 4d 08             	mov    0x8(%ebp),%ecx
  102b2d:	8b 55 fc             	mov    -0x4(%ebp),%edx
  102b30:	01 ca                	add    %ecx,%edx
  102b32:	88 02                	mov    %al,(%edx)
  102b34:	83 45 fc 01          	addl   $0x1,-0x4(%ebp)
  102b38:	8b 45 fc             	mov    -0x4(%ebp),%eax
  102b3b:	3b 45 f8             	cmp    -0x8(%ebp),%eax
  102b3e:	72 d2                	jb     102b12 <channel_name_copy+0x30>
  102b40:	8b 55 08             	mov    0x8(%ebp),%edx
  102b43:	8b 45 fc             	mov    -0x4(%ebp),%eax
  102b46:	01 d0                	add    %edx,%eax
  102b48:	c6 00 00             	movb   $0x0,(%eax)
  102b4b:	eb 01                	jmp    102b4e <channel_name_copy+0x6c>
  102b4d:	90                   	nop
  102b4e:	c9                   	leave
  102b4f:	c3                   	ret

00102b50 <find_channel>:
  102b50:	55                   	push   %ebp
  102b51:	89 e5                	mov    %esp,%ebp
  102b53:	83 ec 10             	sub    $0x10,%esp
  102b56:	83 7d 08 00          	cmpl   $0x0,0x8(%ebp)
  102b5a:	7f 07                	jg     102b63 <find_channel+0x13>
  102b5c:	b8 00 00 00 00       	mov    $0x0,%eax
  102b61:	eb 51                	jmp    102bb4 <find_channel+0x64>
  102b63:	c7 45 fc 00 00 00 00 	movl   $0x0,-0x4(%ebp)
  102b6a:	eb 3d                	jmp    102ba9 <find_channel+0x59>
  102b6c:	8b 45 fc             	mov    -0x4(%ebp),%eax
  102b6f:	69 c0 fc 22 00 00    	imul   $0x22fc,%eax,%eax
  102b75:	05 40 12 13 00       	add    $0x131240,%eax
  102b7a:	8b 00                	mov    (%eax),%eax
  102b7c:	85 c0                	test   %eax,%eax
  102b7e:	74 25                	je     102ba5 <find_channel+0x55>
  102b80:	8b 45 fc             	mov    -0x4(%ebp),%eax
  102b83:	69 c0 fc 22 00 00    	imul   $0x22fc,%eax,%eax
  102b89:	05 44 12 13 00       	add    $0x131244,%eax
  102b8e:	8b 00                	mov    (%eax),%eax
  102b90:	39 45 08             	cmp    %eax,0x8(%ebp)
  102b93:	75 10                	jne    102ba5 <find_channel+0x55>
  102b95:	8b 45 fc             	mov    -0x4(%ebp),%eax
  102b98:	69 c0 fc 22 00 00    	imul   $0x22fc,%eax,%eax
  102b9e:	05 40 12 13 00       	add    $0x131240,%eax
  102ba3:	eb 0f                	jmp    102bb4 <find_channel+0x64>
  102ba5:	83 45 fc 01          	addl   $0x1,-0x4(%ebp)
  102ba9:	83 7d fc 1f          	cmpl   $0x1f,-0x4(%ebp)
  102bad:	76 bd                	jbe    102b6c <find_channel+0x1c>
  102baf:	b8 00 00 00 00       	mov    $0x0,%eax
  102bb4:	c9                   	leave
  102bb5:	c3                   	ret

00102bb6 <process_has_channel>:
  102bb6:	55                   	push   %ebp
  102bb7:	89 e5                	mov    %esp,%ebp
  102bb9:	83 ec 10             	sub    $0x10,%esp
  102bbc:	83 7d 08 00          	cmpl   $0x0,0x8(%ebp)
  102bc0:	75 07                	jne    102bc9 <process_has_channel+0x13>
  102bc2:	b8 00 00 00 00       	mov    $0x0,%eax
  102bc7:	eb 3a                	jmp    102c03 <process_has_channel+0x4d>
  102bc9:	c6 45 ff 00          	movb   $0x0,-0x1(%ebp)
  102bcd:	eb 20                	jmp    102bef <process_has_channel+0x39>
  102bcf:	0f b6 55 ff          	movzbl -0x1(%ebp),%edx
  102bd3:	8b 45 08             	mov    0x8(%ebp),%eax
  102bd6:	81 c2 04 04 00 00    	add    $0x404,%edx
  102bdc:	8b 04 90             	mov    (%eax,%edx,4),%eax
  102bdf:	39 45 0c             	cmp    %eax,0xc(%ebp)
  102be2:	75 07                	jne    102beb <process_has_channel+0x35>
  102be4:	b8 01 00 00 00       	mov    $0x1,%eax
  102be9:	eb 18                	jmp    102c03 <process_has_channel+0x4d>
  102beb:	80 45 ff 01          	addb   $0x1,-0x1(%ebp)
  102bef:	8b 45 08             	mov    0x8(%ebp),%eax
  102bf2:	0f b6 80 30 10 00 00 	movzbl 0x1030(%eax),%eax
  102bf9:	38 45 ff             	cmp    %al,-0x1(%ebp)
  102bfc:	72 d1                	jb     102bcf <process_has_channel+0x19>
  102bfe:	b8 00 00 00 00       	mov    $0x0,%eax
  102c03:	c9                   	leave
  102c04:	c3                   	ret

00102c05 <process_add_channel>:
  102c05:	55                   	push   %ebp
  102c06:	89 e5                	mov    %esp,%ebp
  102c08:	83 7d 08 00          	cmpl   $0x0,0x8(%ebp)
  102c0c:	75 07                	jne    102c15 <process_add_channel+0x10>
  102c0e:	b8 ff ff ff ff       	mov    $0xffffffff,%eax
  102c13:	eb 5b                	jmp    102c70 <process_add_channel+0x6b>
  102c15:	ff 75 0c             	push   0xc(%ebp)
  102c18:	ff 75 08             	push   0x8(%ebp)
  102c1b:	e8 96 ff ff ff       	call   102bb6 <process_has_channel>
  102c20:	83 c4 08             	add    $0x8,%esp
  102c23:	85 c0                	test   %eax,%eax
  102c25:	74 07                	je     102c2e <process_add_channel+0x29>
  102c27:	b8 00 00 00 00       	mov    $0x0,%eax
  102c2c:	eb 42                	jmp    102c70 <process_add_channel+0x6b>
  102c2e:	8b 45 08             	mov    0x8(%ebp),%eax
  102c31:	0f b6 80 30 10 00 00 	movzbl 0x1030(%eax),%eax
  102c38:	3c 07                	cmp    $0x7,%al
  102c3a:	76 07                	jbe    102c43 <process_add_channel+0x3e>
  102c3c:	b8 ff ff ff ff       	mov    $0xffffffff,%eax
  102c41:	eb 2d                	jmp    102c70 <process_add_channel+0x6b>
  102c43:	8b 45 08             	mov    0x8(%ebp),%eax
  102c46:	0f b6 80 30 10 00 00 	movzbl 0x1030(%eax),%eax
  102c4d:	8d 50 01             	lea    0x1(%eax),%edx
  102c50:	8b 4d 08             	mov    0x8(%ebp),%ecx
  102c53:	88 91 30 10 00 00    	mov    %dl,0x1030(%ecx)
  102c59:	0f b6 d0             	movzbl %al,%edx
  102c5c:	8b 45 08             	mov    0x8(%ebp),%eax
  102c5f:	8d 8a 04 04 00 00    	lea    0x404(%edx),%ecx
  102c65:	8b 55 0c             	mov    0xc(%ebp),%edx
  102c68:	89 14 88             	mov    %edx,(%eax,%ecx,4)
  102c6b:	b8 00 00 00 00       	mov    $0x0,%eax
  102c70:	c9                   	leave
  102c71:	c3                   	ret

00102c72 <process_remove_channel>:
  102c72:	55                   	push   %ebp
  102c73:	89 e5                	mov    %esp,%ebp
  102c75:	83 ec 10             	sub    $0x10,%esp
  102c78:	83 7d 08 00          	cmpl   $0x0,0x8(%ebp)
  102c7c:	0f 84 b1 00 00 00    	je     102d33 <process_remove_channel+0xc1>
  102c82:	c6 45 ff 00          	movb   $0x0,-0x1(%ebp)
  102c86:	e9 93 00 00 00       	jmp    102d1e <process_remove_channel+0xac>
  102c8b:	0f b6 55 ff          	movzbl -0x1(%ebp),%edx
  102c8f:	8b 45 08             	mov    0x8(%ebp),%eax
  102c92:	81 c2 04 04 00 00    	add    $0x404,%edx
  102c98:	8b 04 90             	mov    (%eax,%edx,4),%eax
  102c9b:	39 45 0c             	cmp    %eax,0xc(%ebp)
  102c9e:	75 7a                	jne    102d1a <process_remove_channel+0xa8>
  102ca0:	0f b6 45 ff          	movzbl -0x1(%ebp),%eax
  102ca4:	83 c0 01             	add    $0x1,%eax
  102ca7:	88 45 fe             	mov    %al,-0x2(%ebp)
  102caa:	eb 27                	jmp    102cd3 <process_remove_channel+0x61>
  102cac:	0f b6 55 fe          	movzbl -0x2(%ebp),%edx
  102cb0:	0f b6 45 fe          	movzbl -0x2(%ebp),%eax
  102cb4:	8d 48 ff             	lea    -0x1(%eax),%ecx
  102cb7:	8b 45 08             	mov    0x8(%ebp),%eax
  102cba:	81 c2 04 04 00 00    	add    $0x404,%edx
  102cc0:	8b 14 90             	mov    (%eax,%edx,4),%edx
  102cc3:	8b 45 08             	mov    0x8(%ebp),%eax
  102cc6:	81 c1 04 04 00 00    	add    $0x404,%ecx
  102ccc:	89 14 88             	mov    %edx,(%eax,%ecx,4)
  102ccf:	80 45 fe 01          	addb   $0x1,-0x2(%ebp)
  102cd3:	8b 45 08             	mov    0x8(%ebp),%eax
  102cd6:	0f b6 80 30 10 00 00 	movzbl 0x1030(%eax),%eax
  102cdd:	38 45 fe             	cmp    %al,-0x2(%ebp)
  102ce0:	72 ca                	jb     102cac <process_remove_channel+0x3a>
  102ce2:	8b 45 08             	mov    0x8(%ebp),%eax
  102ce5:	0f b6 80 30 10 00 00 	movzbl 0x1030(%eax),%eax
  102cec:	0f b6 c0             	movzbl %al,%eax
  102cef:	8d 50 ff             	lea    -0x1(%eax),%edx
  102cf2:	8b 45 08             	mov    0x8(%ebp),%eax
  102cf5:	81 c2 04 04 00 00    	add    $0x404,%edx
  102cfb:	c7 04 90 ff ff ff ff 	movl   $0xffffffff,(%eax,%edx,4)
  102d02:	8b 45 08             	mov    0x8(%ebp),%eax
  102d05:	0f b6 80 30 10 00 00 	movzbl 0x1030(%eax),%eax
  102d0c:	8d 50 ff             	lea    -0x1(%eax),%edx
  102d0f:	8b 45 08             	mov    0x8(%ebp),%eax
  102d12:	88 90 30 10 00 00    	mov    %dl,0x1030(%eax)
  102d18:	eb 1a                	jmp    102d34 <process_remove_channel+0xc2>
  102d1a:	80 45 ff 01          	addb   $0x1,-0x1(%ebp)
  102d1e:	8b 45 08             	mov    0x8(%ebp),%eax
  102d21:	0f b6 80 30 10 00 00 	movzbl 0x1030(%eax),%eax
  102d28:	38 45 ff             	cmp    %al,-0x1(%ebp)
  102d2b:	0f 82 5a ff ff ff    	jb     102c8b <process_remove_channel+0x19>
  102d31:	eb 01                	jmp    102d34 <process_remove_channel+0xc2>
  102d33:	90                   	nop
  102d34:	c9                   	leave
  102d35:	c3                   	ret

00102d36 <channel_remove_waiter>:
  102d36:	55                   	push   %ebp
  102d37:	89 e5                	mov    %esp,%ebp
  102d39:	83 ec 10             	sub    $0x10,%esp
  102d3c:	83 7d 08 00          	cmpl   $0x0,0x8(%ebp)
  102d40:	0f 84 bb 00 00 00    	je     102e01 <channel_remove_waiter+0xcb>
  102d46:	83 7d 0c 00          	cmpl   $0x0,0xc(%ebp)
  102d4a:	0f 84 b1 00 00 00    	je     102e01 <channel_remove_waiter+0xcb>
  102d50:	c6 45 ff 00          	movb   $0x0,-0x1(%ebp)
  102d54:	e9 93 00 00 00       	jmp    102dec <channel_remove_waiter+0xb6>
  102d59:	0f b6 55 ff          	movzbl -0x1(%ebp),%edx
  102d5d:	8b 45 08             	mov    0x8(%ebp),%eax
  102d60:	81 c2 ac 08 00 00    	add    $0x8ac,%edx
  102d66:	8b 04 90             	mov    (%eax,%edx,4),%eax
  102d69:	39 45 0c             	cmp    %eax,0xc(%ebp)
  102d6c:	75 7a                	jne    102de8 <channel_remove_waiter+0xb2>
  102d6e:	0f b6 45 ff          	movzbl -0x1(%ebp),%eax
  102d72:	83 c0 01             	add    $0x1,%eax
  102d75:	88 45 fe             	mov    %al,-0x2(%ebp)
  102d78:	eb 27                	jmp    102da1 <channel_remove_waiter+0x6b>
  102d7a:	0f b6 55 fe          	movzbl -0x2(%ebp),%edx
  102d7e:	0f b6 45 fe          	movzbl -0x2(%ebp),%eax
  102d82:	8d 48 ff             	lea    -0x1(%eax),%ecx
  102d85:	8b 45 08             	mov    0x8(%ebp),%eax
  102d88:	81 c2 ac 08 00 00    	add    $0x8ac,%edx
  102d8e:	8b 14 90             	mov    (%eax,%edx,4),%edx
  102d91:	8b 45 08             	mov    0x8(%ebp),%eax
  102d94:	81 c1 ac 08 00 00    	add    $0x8ac,%ecx
  102d9a:	89 14 88             	mov    %edx,(%eax,%ecx,4)
  102d9d:	80 45 fe 01          	addb   $0x1,-0x2(%ebp)
  102da1:	8b 45 08             	mov    0x8(%ebp),%eax
  102da4:	0f b6 80 d0 22 00 00 	movzbl 0x22d0(%eax),%eax
  102dab:	38 45 fe             	cmp    %al,-0x2(%ebp)
  102dae:	72 ca                	jb     102d7a <channel_remove_waiter+0x44>
  102db0:	8b 45 08             	mov    0x8(%ebp),%eax
  102db3:	0f b6 80 d0 22 00 00 	movzbl 0x22d0(%eax),%eax
  102dba:	0f b6 c0             	movzbl %al,%eax
  102dbd:	8d 50 ff             	lea    -0x1(%eax),%edx
  102dc0:	8b 45 08             	mov    0x8(%ebp),%eax
  102dc3:	81 c2 ac 08 00 00    	add    $0x8ac,%edx
  102dc9:	c7 04 90 00 00 00 00 	movl   $0x0,(%eax,%edx,4)
  102dd0:	8b 45 08             	mov    0x8(%ebp),%eax
  102dd3:	0f b6 80 d0 22 00 00 	movzbl 0x22d0(%eax),%eax
  102dda:	8d 50 ff             	lea    -0x1(%eax),%edx
  102ddd:	8b 45 08             	mov    0x8(%ebp),%eax
  102de0:	88 90 d0 22 00 00    	mov    %dl,0x22d0(%eax)
  102de6:	eb 1a                	jmp    102e02 <channel_remove_waiter+0xcc>
  102de8:	80 45 ff 01          	addb   $0x1,-0x1(%ebp)
  102dec:	8b 45 08             	mov    0x8(%ebp),%eax
  102def:	0f b6 80 d0 22 00 00 	movzbl 0x22d0(%eax),%eax
  102df6:	38 45 ff             	cmp    %al,-0x1(%ebp)
  102df9:	0f 82 5a ff ff ff    	jb     102d59 <channel_remove_waiter+0x23>
  102dff:	eb 01                	jmp    102e02 <channel_remove_waiter+0xcc>
  102e01:	90                   	nop
  102e02:	c9                   	leave
  102e03:	c3                   	ret

00102e04 <ipc_system_init>:
  102e04:	55                   	push   %ebp
  102e05:	89 e5                	mov    %esp,%ebp
  102e07:	83 ec 38             	sub    $0x38,%esp
  102e0a:	83 ec 0c             	sub    $0xc,%esp
  102e0d:	68 00 0c 13 00       	push   $0x130c00
  102e12:	e8 ef 87 01 00       	call   11b606 <spinlock_init>
  102e17:	83 c4 10             	add    $0x10,%esp
  102e1a:	83 ec 0c             	sub    $0xc,%esp
  102e1d:	68 04 0c 13 00       	push   $0x130c04
  102e22:	e8 df 87 01 00       	call   11b606 <spinlock_init>
  102e27:	83 c4 10             	add    $0x10,%esp
  102e2a:	c7 45 f4 00 00 00 00 	movl   $0x0,-0xc(%ebp)
  102e31:	e9 8b 00 00 00       	jmp    102ec1 <ipc_system_init+0xbd>
  102e36:	8b 55 f4             	mov    -0xc(%ebp),%edx
  102e39:	89 d0                	mov    %edx,%eax
  102e3b:	01 c0                	add    %eax,%eax
  102e3d:	01 d0                	add    %edx,%eax
  102e3f:	c1 e0 03             	shl    $0x3,%eax
  102e42:	05 20 0c 13 00       	add    $0x130c20,%eax
  102e47:	c6 00 00             	movb   $0x0,(%eax)
  102e4a:	8b 55 f4             	mov    -0xc(%ebp),%edx
  102e4d:	89 d0                	mov    %edx,%eax
  102e4f:	01 c0                	add    %eax,%eax
  102e51:	01 d0                	add    %edx,%eax
  102e53:	c1 e0 03             	shl    $0x3,%eax
  102e56:	05 24 0c 13 00       	add    $0x130c24,%eax
  102e5b:	c7 00 ff ff ff ff    	movl   $0xffffffff,(%eax)
  102e61:	8b 55 f4             	mov    -0xc(%ebp),%edx
  102e64:	89 d0                	mov    %edx,%eax
  102e66:	01 c0                	add    %eax,%eax
  102e68:	01 d0                	add    %edx,%eax
  102e6a:	c1 e0 03             	shl    $0x3,%eax
  102e6d:	05 28 0c 13 00       	add    $0x130c28,%eax
  102e72:	c7 00 ff ff ff ff    	movl   $0xffffffff,(%eax)
  102e78:	8b 55 f4             	mov    -0xc(%ebp),%edx
  102e7b:	89 d0                	mov    %edx,%eax
  102e7d:	01 c0                	add    %eax,%eax
  102e7f:	01 d0                	add    %edx,%eax
  102e81:	c1 e0 03             	shl    $0x3,%eax
  102e84:	05 2c 0c 13 00       	add    $0x130c2c,%eax
  102e89:	c7 00 00 00 00 00    	movl   $0x0,(%eax)
  102e8f:	8b 55 f4             	mov    -0xc(%ebp),%edx
  102e92:	89 d0                	mov    %edx,%eax
  102e94:	01 c0                	add    %eax,%eax
  102e96:	01 d0                	add    %edx,%eax
  102e98:	c1 e0 03             	shl    $0x3,%eax
  102e9b:	05 30 0c 13 00       	add    $0x130c30,%eax
  102ea0:	c7 00 00 00 00 00    	movl   $0x0,(%eax)
  102ea6:	8b 55 f4             	mov    -0xc(%ebp),%edx
  102ea9:	89 d0                	mov    %edx,%eax
  102eab:	01 c0                	add    %eax,%eax
  102ead:	01 d0                	add    %edx,%eax
  102eaf:	c1 e0 03             	shl    $0x3,%eax
  102eb2:	05 34 0c 13 00       	add    $0x130c34,%eax
  102eb7:	c7 00 00 00 00 00    	movl   $0x0,(%eax)
  102ebd:	83 45 f4 01          	addl   $0x1,-0xc(%ebp)
  102ec1:	83 7d f4 3f          	cmpl   $0x3f,-0xc(%ebp)
  102ec5:	0f 86 6b ff ff ff    	jbe    102e36 <ipc_system_init+0x32>
  102ecb:	c7 45 f0 00 00 00 00 	movl   $0x0,-0x10(%ebp)
  102ed2:	eb 12                	jmp    102ee6 <ipc_system_init+0xe2>
  102ed4:	8b 45 f0             	mov    -0x10(%ebp),%eax
  102ed7:	c7 04 85 c0 71 17 00 	movl   $0xffffffff,0x1771c0(,%eax,4)
  102ede:	ff ff ff ff 
  102ee2:	83 45 f0 01          	addl   $0x1,-0x10(%ebp)
  102ee6:	83 7d f0 03          	cmpl   $0x3,-0x10(%ebp)
  102eea:	7e e8                	jle    102ed4 <ipc_system_init+0xd0>
  102eec:	c7 45 ec 00 00 00 00 	movl   $0x0,-0x14(%ebp)
  102ef3:	e9 df 01 00 00       	jmp    1030d7 <ipc_system_init+0x2d3>
  102ef8:	8b 45 ec             	mov    -0x14(%ebp),%eax
  102efb:	69 c0 fc 22 00 00    	imul   $0x22fc,%eax,%eax
  102f01:	05 40 12 13 00       	add    $0x131240,%eax
  102f06:	c7 00 00 00 00 00    	movl   $0x0,(%eax)
  102f0c:	8b 45 ec             	mov    -0x14(%ebp),%eax
  102f0f:	69 c0 fc 22 00 00    	imul   $0x22fc,%eax,%eax
  102f15:	05 44 12 13 00       	add    $0x131244,%eax
  102f1a:	c7 00 00 00 00 00    	movl   $0x0,(%eax)
  102f20:	8b 45 ec             	mov    -0x14(%ebp),%eax
  102f23:	69 c0 fc 22 00 00    	imul   $0x22fc,%eax,%eax
  102f29:	05 48 12 13 00       	add    $0x131248,%eax
  102f2e:	c7 00 00 00 00 00    	movl   $0x0,(%eax)
  102f34:	8b 45 ec             	mov    -0x14(%ebp),%eax
  102f37:	69 c0 fc 22 00 00    	imul   $0x22fc,%eax,%eax
  102f3d:	05 4c 12 13 00       	add    $0x13124c,%eax
  102f42:	c6 00 00             	movb   $0x0,(%eax)
  102f45:	8b 45 ec             	mov    -0x14(%ebp),%eax
  102f48:	69 c0 fc 22 00 00    	imul   $0x22fc,%eax,%eax
  102f4e:	05 ec 34 13 00       	add    $0x1334ec,%eax
  102f53:	c6 00 00             	movb   $0x0,(%eax)
  102f56:	8b 45 ec             	mov    -0x14(%ebp),%eax
  102f59:	69 c0 fc 22 00 00    	imul   $0x22fc,%eax,%eax
  102f5f:	05 ed 34 13 00       	add    $0x1334ed,%eax
  102f64:	c6 00 00             	movb   $0x0,(%eax)
  102f67:	8b 45 ec             	mov    -0x14(%ebp),%eax
  102f6a:	69 c0 fc 22 00 00    	imul   $0x22fc,%eax,%eax
  102f70:	05 ee 34 13 00       	add    $0x1334ee,%eax
  102f75:	c6 00 00             	movb   $0x0,(%eax)
  102f78:	8b 45 ec             	mov    -0x14(%ebp),%eax
  102f7b:	69 c0 fc 22 00 00    	imul   $0x22fc,%eax,%eax
  102f81:	05 10 35 13 00       	add    $0x133510,%eax
  102f86:	c6 00 00             	movb   $0x0,(%eax)
  102f89:	8b 45 ec             	mov    -0x14(%ebp),%eax
  102f8c:	69 c0 fc 22 00 00    	imul   $0x22fc,%eax,%eax
  102f92:	05 34 35 13 00       	add    $0x133534,%eax
  102f97:	c6 00 00             	movb   $0x0,(%eax)
  102f9a:	8b 45 ec             	mov    -0x14(%ebp),%eax
  102f9d:	69 c0 fc 22 00 00    	imul   $0x22fc,%eax,%eax
  102fa3:	05 f0 22 00 00       	add    $0x22f0,%eax
  102fa8:	05 40 12 13 00       	add    $0x131240,%eax
  102fad:	83 c0 08             	add    $0x8,%eax
  102fb0:	83 ec 0c             	sub    $0xc,%esp
  102fb3:	50                   	push   %eax
  102fb4:	e8 4d 86 01 00       	call   11b606 <spinlock_init>
  102fb9:	83 c4 10             	add    $0x10,%esp
  102fbc:	c7 45 e8 00 00 00 00 	movl   $0x0,-0x18(%ebp)
  102fc3:	e9 9f 00 00 00       	jmp    103067 <ipc_system_init+0x263>
  102fc8:	8b 55 e8             	mov    -0x18(%ebp),%edx
  102fcb:	8b 45 ec             	mov    -0x14(%ebp),%eax
  102fce:	69 d2 14 01 00 00    	imul   $0x114,%edx,%edx
  102fd4:	69 c0 fc 22 00 00    	imul   $0x22fc,%eax,%eax
  102fda:	01 d0                	add    %edx,%eax
  102fdc:	05 6c 12 13 00       	add    $0x13126c,%eax
  102fe1:	c7 00 00 00 00 00    	movl   $0x0,(%eax)
  102fe7:	8b 55 e8             	mov    -0x18(%ebp),%edx
  102fea:	8b 45 ec             	mov    -0x14(%ebp),%eax
  102fed:	69 d2 14 01 00 00    	imul   $0x114,%edx,%edx
  102ff3:	69 c0 fc 22 00 00    	imul   $0x22fc,%eax,%eax
  102ff9:	01 d0                	add    %edx,%eax
  102ffb:	05 70 12 13 00       	add    $0x131270,%eax
  103000:	c7 00 00 00 00 00    	movl   $0x0,(%eax)
  103006:	8b 55 e8             	mov    -0x18(%ebp),%edx
  103009:	8b 45 ec             	mov    -0x14(%ebp),%eax
  10300c:	69 d2 14 01 00 00    	imul   $0x114,%edx,%edx
  103012:	69 c0 fc 22 00 00    	imul   $0x22fc,%eax,%eax
  103018:	01 d0                	add    %edx,%eax
  10301a:	05 74 12 13 00       	add    $0x131274,%eax
  10301f:	c7 00 00 00 00 00    	movl   $0x0,(%eax)
  103025:	8b 55 e8             	mov    -0x18(%ebp),%edx
  103028:	8b 45 ec             	mov    -0x14(%ebp),%eax
  10302b:	69 d2 14 01 00 00    	imul   $0x114,%edx,%edx
  103031:	69 c0 fc 22 00 00    	imul   $0x22fc,%eax,%eax
  103037:	01 d0                	add    %edx,%eax
  103039:	05 78 12 13 00       	add    $0x131278,%eax
  10303e:	c7 00 00 00 00 00    	movl   $0x0,(%eax)
  103044:	8b 55 e8             	mov    -0x18(%ebp),%edx
  103047:	8b 45 ec             	mov    -0x14(%ebp),%eax
  10304a:	69 d2 14 01 00 00    	imul   $0x114,%edx,%edx
  103050:	69 c0 fc 22 00 00    	imul   $0x22fc,%eax,%eax
  103056:	01 d0                	add    %edx,%eax
  103058:	05 7c 12 13 00       	add    $0x13127c,%eax
  10305d:	c7 00 ff ff ff ff    	movl   $0xffffffff,(%eax)
  103063:	83 45 e8 01          	addl   $0x1,-0x18(%ebp)
  103067:	83 7d e8 1f          	cmpl   $0x1f,-0x18(%ebp)
  10306b:	0f 86 57 ff ff ff    	jbe    102fc8 <ipc_system_init+0x1c4>
  103071:	c7 45 e4 00 00 00 00 	movl   $0x0,-0x1c(%ebp)
  103078:	eb 22                	jmp    10309c <ipc_system_init+0x298>
  10307a:	8b 45 ec             	mov    -0x14(%ebp),%eax
  10307d:	69 d0 bf 08 00 00    	imul   $0x8bf,%eax,%edx
  103083:	8b 45 e4             	mov    -0x1c(%ebp),%eax
  103086:	01 d0                	add    %edx,%eax
  103088:	05 ac 08 00 00       	add    $0x8ac,%eax
  10308d:	c7 04 85 40 12 13 00 	movl   $0x0,0x131240(,%eax,4)
  103094:	00 00 00 00 
  103098:	83 45 e4 01          	addl   $0x1,-0x1c(%ebp)
  10309c:	83 7d e4 07          	cmpl   $0x7,-0x1c(%ebp)
  1030a0:	76 d8                	jbe    10307a <ipc_system_init+0x276>
  1030a2:	c7 45 e0 00 00 00 00 	movl   $0x0,-0x20(%ebp)
  1030a9:	eb 22                	jmp    1030cd <ipc_system_init+0x2c9>
  1030ab:	8b 45 ec             	mov    -0x14(%ebp),%eax
  1030ae:	69 d0 bf 08 00 00    	imul   $0x8bf,%eax,%edx
  1030b4:	8b 45 e0             	mov    -0x20(%ebp),%eax
  1030b7:	01 d0                	add    %edx,%eax
  1030b9:	05 b4 08 00 00       	add    $0x8b4,%eax
  1030be:	c7 04 85 44 12 13 00 	movl   $0x0,0x131244(,%eax,4)
  1030c5:	00 00 00 00 
  1030c9:	83 45 e0 01          	addl   $0x1,-0x20(%ebp)
  1030cd:	83 7d e0 07          	cmpl   $0x7,-0x20(%ebp)
  1030d1:	76 d8                	jbe    1030ab <ipc_system_init+0x2a7>
  1030d3:	83 45 ec 01          	addl   $0x1,-0x14(%ebp)
  1030d7:	83 7d ec 1f          	cmpl   $0x1f,-0x14(%ebp)
  1030db:	0f 86 17 fe ff ff    	jbe    102ef8 <ipc_system_init+0xf4>
  1030e1:	c7 05 84 e0 12 00 01 	movl   $0x1,0x12e084
  1030e8:	00 00 00 
  1030eb:	c7 45 c8 5d 10 12 00 	movl   $0x12105d,-0x38(%ebp)
  1030f2:	c7 45 cc 68 10 12 00 	movl   $0x121068,-0x34(%ebp)
  1030f9:	c7 45 d0 73 10 12 00 	movl   $0x121073,-0x30(%ebp)
  103100:	c7 45 d4 7e 10 12 00 	movl   $0x12107e,-0x2c(%ebp)
  103107:	c7 45 dc 00 00 00 00 	movl   $0x0,-0x24(%ebp)
  10310e:	eb 58                	jmp    103168 <ipc_system_init+0x364>
  103110:	8b 45 dc             	mov    -0x24(%ebp),%eax
  103113:	8b 44 85 c8          	mov    -0x38(%ebp,%eax,4),%eax
  103117:	83 ec 04             	sub    $0x4,%esp
  10311a:	6a 01                	push   $0x1
  10311c:	6a 00                	push   $0x0
  10311e:	50                   	push   %eax
  10311f:	e8 57 00 00 00       	call   10317b <ipc_channel_create>
  103124:	83 c4 10             	add    $0x10,%esp
  103127:	89 45 d8             	mov    %eax,-0x28(%ebp)
  10312a:	83 7d d8 00          	cmpl   $0x0,-0x28(%ebp)
  10312e:	79 27                	jns    103157 <ipc_system_init+0x353>
  103130:	83 ec 04             	sub    $0x4,%esp
  103133:	68 8c 10 12 00       	push   $0x12108c
  103138:	6a 03                	push   $0x3
  10313a:	68 56 10 12 00       	push   $0x121056
  10313f:	e8 0d 52 00 00       	call   108351 <klog_emit_tagged>
  103144:	83 c4 10             	add    $0x10,%esp
  103147:	8b 45 dc             	mov    -0x24(%ebp),%eax
  10314a:	c7 04 85 c0 71 17 00 	movl   $0xffffffff,0x1771c0(,%eax,4)
  103151:	ff ff ff ff 
  103155:	eb 0d                	jmp    103164 <ipc_system_init+0x360>
  103157:	8b 45 dc             	mov    -0x24(%ebp),%eax
  10315a:	8b 55 d8             	mov    -0x28(%ebp),%edx
  10315d:	89 14 85 c0 71 17 00 	mov    %edx,0x1771c0(,%eax,4)
  103164:	83 45 dc 01          	addl   $0x1,-0x24(%ebp)
  103168:	83 7d dc 03          	cmpl   $0x3,-0x24(%ebp)
  10316c:	7e a2                	jle    103110 <ipc_system_init+0x30c>
  10316e:	c7 05 20 12 13 00 01 	movl   $0x1,0x131220
  103175:	00 00 00 
  103178:	90                   	nop
  103179:	c9                   	leave
  10317a:	c3                   	ret

0010317b <ipc_channel_create>:
  10317b:	55                   	push   %ebp
  10317c:	89 e5                	mov    %esp,%ebp
  10317e:	83 ec 10             	sub    $0x10,%esp
  103181:	c7 45 fc 00 00 00 00 	movl   $0x0,-0x4(%ebp)
  103188:	e9 1a 01 00 00       	jmp    1032a7 <ipc_channel_create+0x12c>
  10318d:	8b 45 fc             	mov    -0x4(%ebp),%eax
  103190:	69 c0 fc 22 00 00    	imul   $0x22fc,%eax,%eax
  103196:	05 40 12 13 00       	add    $0x131240,%eax
  10319b:	8b 00                	mov    (%eax),%eax
  10319d:	85 c0                	test   %eax,%eax
  10319f:	0f 85 fd 00 00 00    	jne    1032a2 <ipc_channel_create+0x127>
  1031a5:	8b 45 fc             	mov    -0x4(%ebp),%eax
  1031a8:	69 c0 fc 22 00 00    	imul   $0x22fc,%eax,%eax
  1031ae:	05 40 12 13 00       	add    $0x131240,%eax
  1031b3:	c7 00 01 00 00 00    	movl   $0x1,(%eax)
  1031b9:	a1 84 e0 12 00       	mov    0x12e084,%eax
  1031be:	8d 50 01             	lea    0x1(%eax),%edx
  1031c1:	89 15 84 e0 12 00    	mov    %edx,0x12e084
  1031c7:	8b 55 fc             	mov    -0x4(%ebp),%edx
  1031ca:	69 d2 fc 22 00 00    	imul   $0x22fc,%edx,%edx
  1031d0:	81 c2 44 12 13 00    	add    $0x131244,%edx
  1031d6:	89 02                	mov    %eax,(%edx)
  1031d8:	8b 45 fc             	mov    -0x4(%ebp),%eax
  1031db:	69 c0 fc 22 00 00    	imul   $0x22fc,%eax,%eax
  1031e1:	8d 90 48 12 13 00    	lea    0x131248(%eax),%edx
  1031e7:	8b 45 10             	mov    0x10(%ebp),%eax
  1031ea:	89 02                	mov    %eax,(%edx)
  1031ec:	8b 45 fc             	mov    -0x4(%ebp),%eax
  1031ef:	69 c0 fc 22 00 00    	imul   $0x22fc,%eax,%eax
  1031f5:	05 ec 34 13 00       	add    $0x1334ec,%eax
  1031fa:	c6 00 00             	movb   $0x0,(%eax)
  1031fd:	8b 45 fc             	mov    -0x4(%ebp),%eax
  103200:	69 c0 fc 22 00 00    	imul   $0x22fc,%eax,%eax
  103206:	05 ed 34 13 00       	add    $0x1334ed,%eax
  10320b:	c6 00 00             	movb   $0x0,(%eax)
  10320e:	8b 45 fc             	mov    -0x4(%ebp),%eax
  103211:	69 c0 fc 22 00 00    	imul   $0x22fc,%eax,%eax
  103217:	05 ee 34 13 00       	add    $0x1334ee,%eax
  10321c:	c6 00 00             	movb   $0x0,(%eax)
  10321f:	8b 45 fc             	mov    -0x4(%ebp),%eax
  103222:	69 c0 fc 22 00 00    	imul   $0x22fc,%eax,%eax
  103228:	05 10 35 13 00       	add    $0x133510,%eax
  10322d:	c6 00 00             	movb   $0x0,(%eax)
  103230:	8b 45 fc             	mov    -0x4(%ebp),%eax
  103233:	69 c0 fc 22 00 00    	imul   $0x22fc,%eax,%eax
  103239:	05 34 35 13 00       	add    $0x133534,%eax
  10323e:	c6 00 00             	movb   $0x0,(%eax)
  103241:	8b 45 0c             	mov    0xc(%ebp),%eax
  103244:	89 45 f8             	mov    %eax,-0x8(%ebp)
  103247:	83 7d 08 00          	cmpl   $0x0,0x8(%ebp)
  10324b:	74 21                	je     10326e <ipc_channel_create+0xf3>
  10324d:	83 7d f8 00          	cmpl   $0x0,-0x8(%ebp)
  103251:	75 1b                	jne    10326e <ipc_channel_create+0xf3>
  103253:	eb 04                	jmp    103259 <ipc_channel_create+0xde>
  103255:	83 45 f8 01          	addl   $0x1,-0x8(%ebp)
  103259:	8b 55 08             	mov    0x8(%ebp),%edx
  10325c:	8b 45 f8             	mov    -0x8(%ebp),%eax
  10325f:	01 d0                	add    %edx,%eax
  103261:	0f b6 00             	movzbl (%eax),%eax
  103264:	84 c0                	test   %al,%al
  103266:	74 06                	je     10326e <ipc_channel_create+0xf3>
  103268:	83 7d f8 1e          	cmpl   $0x1e,-0x8(%ebp)
  10326c:	76 e7                	jbe    103255 <ipc_channel_create+0xda>
  10326e:	8b 45 fc             	mov    -0x4(%ebp),%eax
  103271:	69 c0 fc 22 00 00    	imul   $0x22fc,%eax,%eax
  103277:	05 40 12 13 00       	add    $0x131240,%eax
  10327c:	83 c0 0c             	add    $0xc,%eax
  10327f:	ff 75 f8             	push   -0x8(%ebp)
  103282:	ff 75 08             	push   0x8(%ebp)
  103285:	6a 20                	push   $0x20
  103287:	50                   	push   %eax
  103288:	e8 55 f8 ff ff       	call   102ae2 <channel_name_copy>
  10328d:	83 c4 10             	add    $0x10,%esp
  103290:	8b 45 fc             	mov    -0x4(%ebp),%eax
  103293:	69 c0 fc 22 00 00    	imul   $0x22fc,%eax,%eax
  103299:	05 44 12 13 00       	add    $0x131244,%eax
  10329e:	8b 00                	mov    (%eax),%eax
  1032a0:	eb 14                	jmp    1032b6 <ipc_channel_create+0x13b>
  1032a2:	90                   	nop
  1032a3:	83 45 fc 01          	addl   $0x1,-0x4(%ebp)
  1032a7:	83 7d fc 1f          	cmpl   $0x1f,-0x4(%ebp)
  1032ab:	0f 86 dc fe ff ff    	jbe    10318d <ipc_channel_create+0x12>
  1032b1:	b8 ff ff ff ff       	mov    $0xffffffff,%eax
  1032b6:	c9                   	leave
  1032b7:	c3                   	ret

001032b8 <ipc_channel_join>:
  1032b8:	55                   	push   %ebp
  1032b9:	89 e5                	mov    %esp,%ebp
  1032bb:	83 ec 18             	sub    $0x18,%esp
  1032be:	83 7d 08 00          	cmpl   $0x0,0x8(%ebp)
  1032c2:	75 0a                	jne    1032ce <ipc_channel_join+0x16>
  1032c4:	b8 ff ff ff ff       	mov    $0xffffffff,%eax
  1032c9:	e9 2b 01 00 00       	jmp    1033f9 <ipc_channel_join+0x141>
  1032ce:	ff 75 0c             	push   0xc(%ebp)
  1032d1:	e8 7a f8 ff ff       	call   102b50 <find_channel>
  1032d6:	83 c4 04             	add    $0x4,%esp
  1032d9:	89 45 f0             	mov    %eax,-0x10(%ebp)
  1032dc:	83 7d f0 00          	cmpl   $0x0,-0x10(%ebp)
  1032e0:	75 0a                	jne    1032ec <ipc_channel_join+0x34>
  1032e2:	b8 ff ff ff ff       	mov    $0xffffffff,%eax
  1032e7:	e9 0d 01 00 00       	jmp    1033f9 <ipc_channel_join+0x141>
  1032ec:	ff 75 0c             	push   0xc(%ebp)
  1032ef:	ff 75 08             	push   0x8(%ebp)
  1032f2:	e8 0e f9 ff ff       	call   102c05 <process_add_channel>
  1032f7:	83 c4 08             	add    $0x8,%esp
  1032fa:	85 c0                	test   %eax,%eax
  1032fc:	79 0a                	jns    103308 <ipc_channel_join+0x50>
  1032fe:	b8 ff ff ff ff       	mov    $0xffffffff,%eax
  103303:	e9 f1 00 00 00       	jmp    1033f9 <ipc_channel_join+0x141>
  103308:	8b 45 f0             	mov    -0x10(%ebp),%eax
  10330b:	8d 90 f8 22 00 00    	lea    0x22f8(%eax),%edx
  103311:	83 ec 08             	sub    $0x8,%esp
  103314:	8d 45 ec             	lea    -0x14(%ebp),%eax
  103317:	50                   	push   %eax
  103318:	52                   	push   %edx
  103319:	e8 57 83 01 00       	call   11b675 <spinlock_lock_irqsave>
  10331e:	83 c4 10             	add    $0x10,%esp
  103321:	c6 45 f7 00          	movb   $0x0,-0x9(%ebp)
  103325:	eb 3d                	jmp    103364 <ipc_channel_join+0xac>
  103327:	0f b6 55 f7          	movzbl -0x9(%ebp),%edx
  10332b:	8b 45 f0             	mov    -0x10(%ebp),%eax
  10332e:	81 c2 b4 08 00 00    	add    $0x8b4,%edx
  103334:	8b 44 90 04          	mov    0x4(%eax,%edx,4),%eax
  103338:	39 45 08             	cmp    %eax,0x8(%ebp)
  10333b:	75 23                	jne    103360 <ipc_channel_join+0xa8>
  10333d:	8b 45 ec             	mov    -0x14(%ebp),%eax
  103340:	8b 55 f0             	mov    -0x10(%ebp),%edx
  103343:	81 c2 f8 22 00 00    	add    $0x22f8,%edx
  103349:	83 ec 08             	sub    $0x8,%esp
  10334c:	50                   	push   %eax
  10334d:	52                   	push   %edx
  10334e:	e8 52 83 01 00       	call   11b6a5 <spinlock_unlock_irqrestore>
  103353:	83 c4 10             	add    $0x10,%esp
  103356:	b8 00 00 00 00       	mov    $0x0,%eax
  10335b:	e9 99 00 00 00       	jmp    1033f9 <ipc_channel_join+0x141>
  103360:	80 45 f7 01          	addb   $0x1,-0x9(%ebp)
  103364:	8b 45 f0             	mov    -0x10(%ebp),%eax
  103367:	0f b6 80 f4 22 00 00 	movzbl 0x22f4(%eax),%eax
  10336e:	38 45 f7             	cmp    %al,-0x9(%ebp)
  103371:	72 b4                	jb     103327 <ipc_channel_join+0x6f>
  103373:	8b 45 f0             	mov    -0x10(%ebp),%eax
  103376:	0f b6 80 f4 22 00 00 	movzbl 0x22f4(%eax),%eax
  10337d:	3c 07                	cmp    $0x7,%al
  10337f:	76 31                	jbe    1033b2 <ipc_channel_join+0xfa>
  103381:	8b 45 ec             	mov    -0x14(%ebp),%eax
  103384:	8b 55 f0             	mov    -0x10(%ebp),%edx
  103387:	81 c2 f8 22 00 00    	add    $0x22f8,%edx
  10338d:	83 ec 08             	sub    $0x8,%esp
  103390:	50                   	push   %eax
  103391:	52                   	push   %edx
  103392:	e8 0e 83 01 00       	call   11b6a5 <spinlock_unlock_irqrestore>
  103397:	83 c4 10             	add    $0x10,%esp
  10339a:	83 ec 08             	sub    $0x8,%esp
  10339d:	ff 75 0c             	push   0xc(%ebp)
  1033a0:	ff 75 08             	push   0x8(%ebp)
  1033a3:	e8 ca f8 ff ff       	call   102c72 <process_remove_channel>
  1033a8:	83 c4 10             	add    $0x10,%esp
  1033ab:	b8 ff ff ff ff       	mov    $0xffffffff,%eax
  1033b0:	eb 47                	jmp    1033f9 <ipc_channel_join+0x141>
  1033b2:	8b 45 f0             	mov    -0x10(%ebp),%eax
  1033b5:	0f b6 80 f4 22 00 00 	movzbl 0x22f4(%eax),%eax
  1033bc:	8d 50 01             	lea    0x1(%eax),%edx
  1033bf:	8b 4d f0             	mov    -0x10(%ebp),%ecx
  1033c2:	88 91 f4 22 00 00    	mov    %dl,0x22f4(%ecx)
  1033c8:	0f b6 d0             	movzbl %al,%edx
  1033cb:	8b 45 f0             	mov    -0x10(%ebp),%eax
  1033ce:	8d 8a b4 08 00 00    	lea    0x8b4(%edx),%ecx
  1033d4:	8b 55 08             	mov    0x8(%ebp),%edx
  1033d7:	89 54 88 04          	mov    %edx,0x4(%eax,%ecx,4)
  1033db:	8b 45 ec             	mov    -0x14(%ebp),%eax
  1033de:	8b 55 f0             	mov    -0x10(%ebp),%edx
  1033e1:	81 c2 f8 22 00 00    	add    $0x22f8,%edx
  1033e7:	83 ec 08             	sub    $0x8,%esp
  1033ea:	50                   	push   %eax
  1033eb:	52                   	push   %edx
  1033ec:	e8 b4 82 01 00       	call   11b6a5 <spinlock_unlock_irqrestore>
  1033f1:	83 c4 10             	add    $0x10,%esp
  1033f4:	b8 00 00 00 00       	mov    $0x0,%eax
  1033f9:	c9                   	leave
  1033fa:	c3                   	ret

001033fb <ipc_channel_leave>:
  1033fb:	55                   	push   %ebp
  1033fc:	89 e5                	mov    %esp,%ebp
  1033fe:	83 ec 18             	sub    $0x18,%esp
  103401:	83 7d 08 00          	cmpl   $0x0,0x8(%ebp)
  103405:	75 0a                	jne    103411 <ipc_channel_leave+0x16>
  103407:	b8 ff ff ff ff       	mov    $0xffffffff,%eax
  10340c:	e9 27 01 00 00       	jmp    103538 <ipc_channel_leave+0x13d>
  103411:	ff 75 0c             	push   0xc(%ebp)
  103414:	e8 37 f7 ff ff       	call   102b50 <find_channel>
  103419:	83 c4 04             	add    $0x4,%esp
  10341c:	89 45 f0             	mov    %eax,-0x10(%ebp)
  10341f:	83 7d f0 00          	cmpl   $0x0,-0x10(%ebp)
  103423:	75 0a                	jne    10342f <ipc_channel_leave+0x34>
  103425:	b8 ff ff ff ff       	mov    $0xffffffff,%eax
  10342a:	e9 09 01 00 00       	jmp    103538 <ipc_channel_leave+0x13d>
  10342f:	ff 75 0c             	push   0xc(%ebp)
  103432:	ff 75 08             	push   0x8(%ebp)
  103435:	e8 38 f8 ff ff       	call   102c72 <process_remove_channel>
  10343a:	83 c4 08             	add    $0x8,%esp
  10343d:	8b 45 f0             	mov    -0x10(%ebp),%eax
  103440:	8d 90 f8 22 00 00    	lea    0x22f8(%eax),%edx
  103446:	83 ec 08             	sub    $0x8,%esp
  103449:	8d 45 ec             	lea    -0x14(%ebp),%eax
  10344c:	50                   	push   %eax
  10344d:	52                   	push   %edx
  10344e:	e8 22 82 01 00       	call   11b675 <spinlock_lock_irqsave>
  103453:	83 c4 10             	add    $0x10,%esp
  103456:	c6 45 f7 00          	movb   $0x0,-0x9(%ebp)
  10345a:	e9 97 00 00 00       	jmp    1034f6 <ipc_channel_leave+0xfb>
  10345f:	0f b6 55 f7          	movzbl -0x9(%ebp),%edx
  103463:	8b 45 f0             	mov    -0x10(%ebp),%eax
  103466:	81 c2 b4 08 00 00    	add    $0x8b4,%edx
  10346c:	8b 44 90 04          	mov    0x4(%eax,%edx,4),%eax
  103470:	39 45 08             	cmp    %eax,0x8(%ebp)
  103473:	75 7d                	jne    1034f2 <ipc_channel_leave+0xf7>
  103475:	0f b6 45 f7          	movzbl -0x9(%ebp),%eax
  103479:	83 c0 01             	add    $0x1,%eax
  10347c:	88 45 f6             	mov    %al,-0xa(%ebp)
  10347f:	eb 29                	jmp    1034aa <ipc_channel_leave+0xaf>
  103481:	0f b6 55 f6          	movzbl -0xa(%ebp),%edx
  103485:	0f b6 45 f6          	movzbl -0xa(%ebp),%eax
  103489:	8d 48 ff             	lea    -0x1(%eax),%ecx
  10348c:	8b 45 f0             	mov    -0x10(%ebp),%eax
  10348f:	81 c2 b4 08 00 00    	add    $0x8b4,%edx
  103495:	8b 54 90 04          	mov    0x4(%eax,%edx,4),%edx
  103499:	8b 45 f0             	mov    -0x10(%ebp),%eax
  10349c:	81 c1 b4 08 00 00    	add    $0x8b4,%ecx
  1034a2:	89 54 88 04          	mov    %edx,0x4(%eax,%ecx,4)
  1034a6:	80 45 f6 01          	addb   $0x1,-0xa(%ebp)
  1034aa:	8b 45 f0             	mov    -0x10(%ebp),%eax
  1034ad:	0f b6 80 f4 22 00 00 	movzbl 0x22f4(%eax),%eax
  1034b4:	38 45 f6             	cmp    %al,-0xa(%ebp)
  1034b7:	72 c8                	jb     103481 <ipc_channel_leave+0x86>
  1034b9:	8b 45 f0             	mov    -0x10(%ebp),%eax
  1034bc:	0f b6 80 f4 22 00 00 	movzbl 0x22f4(%eax),%eax
  1034c3:	0f b6 c0             	movzbl %al,%eax
  1034c6:	8d 50 ff             	lea    -0x1(%eax),%edx
  1034c9:	8b 45 f0             	mov    -0x10(%ebp),%eax
  1034cc:	81 c2 b4 08 00 00    	add    $0x8b4,%edx
  1034d2:	c7 44 90 04 00 00 00 	movl   $0x0,0x4(%eax,%edx,4)
  1034d9:	00 
  1034da:	8b 45 f0             	mov    -0x10(%ebp),%eax
  1034dd:	0f b6 80 f4 22 00 00 	movzbl 0x22f4(%eax),%eax
  1034e4:	8d 50 ff             	lea    -0x1(%eax),%edx
  1034e7:	8b 45 f0             	mov    -0x10(%ebp),%eax
  1034ea:	88 90 f4 22 00 00    	mov    %dl,0x22f4(%eax)
  1034f0:	eb 17                	jmp    103509 <ipc_channel_leave+0x10e>
  1034f2:	80 45 f7 01          	addb   $0x1,-0x9(%ebp)
  1034f6:	8b 45 f0             	mov    -0x10(%ebp),%eax
  1034f9:	0f b6 80 f4 22 00 00 	movzbl 0x22f4(%eax),%eax
  103500:	38 45 f7             	cmp    %al,-0x9(%ebp)
  103503:	0f 82 56 ff ff ff    	jb     10345f <ipc_channel_leave+0x64>
  103509:	83 ec 08             	sub    $0x8,%esp
  10350c:	ff 75 08             	push   0x8(%ebp)
  10350f:	ff 75 f0             	push   -0x10(%ebp)
  103512:	e8 1f f8 ff ff       	call   102d36 <channel_remove_waiter>
  103517:	83 c4 10             	add    $0x10,%esp
  10351a:	8b 45 ec             	mov    -0x14(%ebp),%eax
  10351d:	8b 55 f0             	mov    -0x10(%ebp),%edx
  103520:	81 c2 f8 22 00 00    	add    $0x22f8,%edx
  103526:	83 ec 08             	sub    $0x8,%esp
  103529:	50                   	push   %eax
  10352a:	52                   	push   %edx
  10352b:	e8 75 81 01 00       	call   11b6a5 <spinlock_unlock_irqrestore>
  103530:	83 c4 10             	add    $0x10,%esp
  103533:	b8 00 00 00 00       	mov    $0x0,%eax
  103538:	c9                   	leave
  103539:	c3                   	ret

0010353a <ipc_channel_send>:
  10353a:	55                   	push   %ebp
  10353b:	89 e5                	mov    %esp,%ebp
  10353d:	83 ec 28             	sub    $0x28,%esp
  103540:	81 7d 1c 00 01 00 00 	cmpl   $0x100,0x1c(%ebp)
  103547:	76 0a                	jbe    103553 <ipc_channel_send+0x19>
  103549:	b8 ff ff ff ff       	mov    $0xffffffff,%eax
  10354e:	e9 6a 02 00 00       	jmp    1037bd <ipc_channel_send+0x283>
  103553:	ff 75 08             	push   0x8(%ebp)
  103556:	e8 f5 f5 ff ff       	call   102b50 <find_channel>
  10355b:	83 c4 04             	add    $0x4,%esp
  10355e:	89 45 e8             	mov    %eax,-0x18(%ebp)
  103561:	83 7d e8 00          	cmpl   $0x0,-0x18(%ebp)
  103565:	75 0a                	jne    103571 <ipc_channel_send+0x37>
  103567:	b8 ff ff ff ff       	mov    $0xffffffff,%eax
  10356c:	e9 4c 02 00 00       	jmp    1037bd <ipc_channel_send+0x283>
  103571:	c7 45 e4 00 00 00 00 	movl   $0x0,-0x1c(%ebp)
  103578:	83 7d 0c 00          	cmpl   $0x0,0xc(%ebp)
  10357c:	7e 4d                	jle    1035cb <ipc_channel_send+0x91>
  10357e:	83 ec 0c             	sub    $0xc,%esp
  103581:	ff 75 0c             	push   0xc(%ebp)
  103584:	e8 18 1c 00 00       	call   1051a1 <process_lookup>
  103589:	83 c4 10             	add    $0x10,%esp
  10358c:	89 45 e4             	mov    %eax,-0x1c(%ebp)
  10358f:	83 7d e4 00          	cmpl   $0x0,-0x1c(%ebp)
  103593:	75 0a                	jne    10359f <ipc_channel_send+0x65>
  103595:	b8 ff ff ff ff       	mov    $0xffffffff,%eax
  10359a:	e9 1e 02 00 00       	jmp    1037bd <ipc_channel_send+0x283>
  10359f:	83 ec 08             	sub    $0x8,%esp
  1035a2:	ff 75 08             	push   0x8(%ebp)
  1035a5:	ff 75 e4             	push   -0x1c(%ebp)
  1035a8:	e8 09 f6 ff ff       	call   102bb6 <process_has_channel>
  1035ad:	83 c4 10             	add    $0x10,%esp
  1035b0:	85 c0                	test   %eax,%eax
  1035b2:	75 17                	jne    1035cb <ipc_channel_send+0x91>
  1035b4:	8b 45 e8             	mov    -0x18(%ebp),%eax
  1035b7:	8b 40 08             	mov    0x8(%eax),%eax
  1035ba:	83 e0 01             	and    $0x1,%eax
  1035bd:	85 c0                	test   %eax,%eax
  1035bf:	75 0a                	jne    1035cb <ipc_channel_send+0x91>
  1035c1:	b8 ff ff ff ff       	mov    $0xffffffff,%eax
  1035c6:	e9 f2 01 00 00       	jmp    1037bd <ipc_channel_send+0x283>
  1035cb:	8b 45 e8             	mov    -0x18(%ebp),%eax
  1035ce:	8d 90 f8 22 00 00    	lea    0x22f8(%eax),%edx
  1035d4:	83 ec 08             	sub    $0x8,%esp
  1035d7:	8d 45 d8             	lea    -0x28(%ebp),%eax
  1035da:	50                   	push   %eax
  1035db:	52                   	push   %edx
  1035dc:	e8 94 80 01 00       	call   11b675 <spinlock_lock_irqsave>
  1035e1:	83 c4 10             	add    $0x10,%esp
  1035e4:	8b 45 e8             	mov    -0x18(%ebp),%eax
  1035e7:	0f b6 80 ae 22 00 00 	movzbl 0x22ae(%eax),%eax
  1035ee:	3c 1f                	cmp    $0x1f,%al
  1035f0:	76 23                	jbe    103615 <ipc_channel_send+0xdb>
  1035f2:	8b 45 d8             	mov    -0x28(%ebp),%eax
  1035f5:	8b 55 e8             	mov    -0x18(%ebp),%edx
  1035f8:	81 c2 f8 22 00 00    	add    $0x22f8,%edx
  1035fe:	83 ec 08             	sub    $0x8,%esp
  103601:	50                   	push   %eax
  103602:	52                   	push   %edx
  103603:	e8 9d 80 01 00       	call   11b6a5 <spinlock_unlock_irqrestore>
  103608:	83 c4 10             	add    $0x10,%esp
  10360b:	b8 ff ff ff ff       	mov    $0xffffffff,%eax
  103610:	e9 a8 01 00 00       	jmp    1037bd <ipc_channel_send+0x283>
  103615:	8b 45 e8             	mov    -0x18(%ebp),%eax
  103618:	0f b6 80 ad 22 00 00 	movzbl 0x22ad(%eax),%eax
  10361f:	0f b6 c0             	movzbl %al,%eax
  103622:	69 c0 14 01 00 00    	imul   $0x114,%eax,%eax
  103628:	8d 50 20             	lea    0x20(%eax),%edx
  10362b:	8b 45 e8             	mov    -0x18(%ebp),%eax
  10362e:	01 d0                	add    %edx,%eax
  103630:	83 c0 0c             	add    $0xc,%eax
  103633:	89 45 e0             	mov    %eax,-0x20(%ebp)
  103636:	8b 45 e0             	mov    -0x20(%ebp),%eax
  103639:	8b 55 10             	mov    0x10(%ebp),%edx
  10363c:	89 10                	mov    %edx,(%eax)
  10363e:	8b 45 e0             	mov    -0x20(%ebp),%eax
  103641:	8b 55 14             	mov    0x14(%ebp),%edx
  103644:	89 50 04             	mov    %edx,0x4(%eax)
  103647:	8b 45 e0             	mov    -0x20(%ebp),%eax
  10364a:	8b 55 1c             	mov    0x1c(%ebp),%edx
  10364d:	89 50 08             	mov    %edx,0x8(%eax)
  103650:	8b 45 e0             	mov    -0x20(%ebp),%eax
  103653:	8b 55 20             	mov    0x20(%ebp),%edx
  103656:	89 50 0c             	mov    %edx,0xc(%eax)
  103659:	8b 45 e0             	mov    -0x20(%ebp),%eax
  10365c:	8b 55 0c             	mov    0xc(%ebp),%edx
  10365f:	89 50 10             	mov    %edx,0x10(%eax)
  103662:	83 7d 1c 00          	cmpl   $0x0,0x1c(%ebp)
  103666:	74 39                	je     1036a1 <ipc_channel_send+0x167>
  103668:	83 7d 18 00          	cmpl   $0x0,0x18(%ebp)
  10366c:	74 33                	je     1036a1 <ipc_channel_send+0x167>
  10366e:	8b 45 18             	mov    0x18(%ebp),%eax
  103671:	89 45 dc             	mov    %eax,-0x24(%ebp)
  103674:	c7 45 f4 00 00 00 00 	movl   $0x0,-0xc(%ebp)
  10367b:	eb 1c                	jmp    103699 <ipc_channel_send+0x15f>
  10367d:	8b 55 dc             	mov    -0x24(%ebp),%edx
  103680:	8b 45 f4             	mov    -0xc(%ebp),%eax
  103683:	01 d0                	add    %edx,%eax
  103685:	0f b6 00             	movzbl (%eax),%eax
  103688:	8b 4d e0             	mov    -0x20(%ebp),%ecx
  10368b:	8b 55 f4             	mov    -0xc(%ebp),%edx
  10368e:	01 ca                	add    %ecx,%edx
  103690:	83 c2 14             	add    $0x14,%edx
  103693:	88 02                	mov    %al,(%edx)
  103695:	83 45 f4 01          	addl   $0x1,-0xc(%ebp)
  103699:	8b 45 f4             	mov    -0xc(%ebp),%eax
  10369c:	3b 45 1c             	cmp    0x1c(%ebp),%eax
  10369f:	72 dc                	jb     10367d <ipc_channel_send+0x143>
  1036a1:	8b 45 e8             	mov    -0x18(%ebp),%eax
  1036a4:	0f b6 80 ad 22 00 00 	movzbl 0x22ad(%eax),%eax
  1036ab:	0f b6 c0             	movzbl %al,%eax
  1036ae:	8d 50 01             	lea    0x1(%eax),%edx
  1036b1:	89 d0                	mov    %edx,%eax
  1036b3:	c1 f8 1f             	sar    $0x1f,%eax
  1036b6:	c1 e8 1b             	shr    $0x1b,%eax
  1036b9:	01 c2                	add    %eax,%edx
  1036bb:	83 e2 1f             	and    $0x1f,%edx
  1036be:	29 c2                	sub    %eax,%edx
  1036c0:	89 d0                	mov    %edx,%eax
  1036c2:	89 c2                	mov    %eax,%edx
  1036c4:	8b 45 e8             	mov    -0x18(%ebp),%eax
  1036c7:	88 90 ad 22 00 00    	mov    %dl,0x22ad(%eax)
  1036cd:	8b 45 e8             	mov    -0x18(%ebp),%eax
  1036d0:	0f b6 80 ae 22 00 00 	movzbl 0x22ae(%eax),%eax
  1036d7:	8d 50 01             	lea    0x1(%eax),%edx
  1036da:	8b 45 e8             	mov    -0x18(%ebp),%eax
  1036dd:	88 90 ae 22 00 00    	mov    %dl,0x22ae(%eax)
  1036e3:	c7 45 f0 00 00 00 00 	movl   $0x0,-0x10(%ebp)
  1036ea:	8b 45 e8             	mov    -0x18(%ebp),%eax
  1036ed:	0f b6 80 d0 22 00 00 	movzbl 0x22d0(%eax),%eax
  1036f4:	84 c0                	test   %al,%al
  1036f6:	0f 84 91 00 00 00    	je     10378d <ipc_channel_send+0x253>
  1036fc:	8b 45 e8             	mov    -0x18(%ebp),%eax
  1036ff:	8b 80 b0 22 00 00    	mov    0x22b0(%eax),%eax
  103705:	89 45 f0             	mov    %eax,-0x10(%ebp)
  103708:	c6 45 ef 01          	movb   $0x1,-0x11(%ebp)
  10370c:	eb 27                	jmp    103735 <ipc_channel_send+0x1fb>
  10370e:	0f b6 55 ef          	movzbl -0x11(%ebp),%edx
  103712:	0f b6 45 ef          	movzbl -0x11(%ebp),%eax
  103716:	8d 48 ff             	lea    -0x1(%eax),%ecx
  103719:	8b 45 e8             	mov    -0x18(%ebp),%eax
  10371c:	81 c2 ac 08 00 00    	add    $0x8ac,%edx
  103722:	8b 14 90             	mov    (%eax,%edx,4),%edx
  103725:	8b 45 e8             	mov    -0x18(%ebp),%eax
  103728:	81 c1 ac 08 00 00    	add    $0x8ac,%ecx
  10372e:	89 14 88             	mov    %edx,(%eax,%ecx,4)
  103731:	80 45 ef 01          	addb   $0x1,-0x11(%ebp)
  103735:	8b 45 e8             	mov    -0x18(%ebp),%eax
  103738:	0f b6 80 d0 22 00 00 	movzbl 0x22d0(%eax),%eax
  10373f:	38 45 ef             	cmp    %al,-0x11(%ebp)
  103742:	72 ca                	jb     10370e <ipc_channel_send+0x1d4>
  103744:	8b 45 e8             	mov    -0x18(%ebp),%eax
  103747:	0f b6 80 d0 22 00 00 	movzbl 0x22d0(%eax),%eax
  10374e:	0f b6 c0             	movzbl %al,%eax
  103751:	8d 50 ff             	lea    -0x1(%eax),%edx
  103754:	8b 45 e8             	mov    -0x18(%ebp),%eax
  103757:	81 c2 ac 08 00 00    	add    $0x8ac,%edx
  10375d:	c7 04 90 00 00 00 00 	movl   $0x0,(%eax,%edx,4)
  103764:	8b 45 e8             	mov    -0x18(%ebp),%eax
  103767:	0f b6 80 d0 22 00 00 	movzbl 0x22d0(%eax),%eax
  10376e:	8d 50 ff             	lea    -0x1(%eax),%edx
  103771:	8b 45 e8             	mov    -0x18(%ebp),%eax
  103774:	88 90 d0 22 00 00    	mov    %dl,0x22d0(%eax)
  10377a:	83 7d f0 00          	cmpl   $0x0,-0x10(%ebp)
  10377e:	74 0d                	je     10378d <ipc_channel_send+0x253>
  103780:	8b 45 f0             	mov    -0x10(%ebp),%eax
  103783:	c7 80 34 10 00 00 ff 	movl   $0xffffffff,0x1034(%eax)
  10378a:	ff ff ff 
  10378d:	8b 45 d8             	mov    -0x28(%ebp),%eax
  103790:	8b 55 e8             	mov    -0x18(%ebp),%edx
  103793:	81 c2 f8 22 00 00    	add    $0x22f8,%edx
  103799:	83 ec 08             	sub    $0x8,%esp
  10379c:	50                   	push   %eax
  10379d:	52                   	push   %edx
  10379e:	e8 02 7f 01 00       	call   11b6a5 <spinlock_unlock_irqrestore>
  1037a3:	83 c4 10             	add    $0x10,%esp
  1037a6:	83 7d f0 00          	cmpl   $0x0,-0x10(%ebp)
  1037aa:	74 0e                	je     1037ba <ipc_channel_send+0x280>
  1037ac:	83 ec 0c             	sub    $0xc,%esp
  1037af:	ff 75 f0             	push   -0x10(%ebp)
  1037b2:	e8 fa 1a 00 00       	call   1052b1 <process_wake>
  1037b7:	83 c4 10             	add    $0x10,%esp
  1037ba:	8b 45 1c             	mov    0x1c(%ebp),%eax
  1037bd:	c9                   	leave
  1037be:	c3                   	ret

001037bf <ipc_channel_receive>:
  1037bf:	55                   	push   %ebp
  1037c0:	89 e5                	mov    %esp,%ebp
  1037c2:	83 ec 28             	sub    $0x28,%esp
  1037c5:	83 7d 08 00          	cmpl   $0x0,0x8(%ebp)
  1037c9:	75 0a                	jne    1037d5 <ipc_channel_receive+0x16>
  1037cb:	b8 ff ff ff ff       	mov    $0xffffffff,%eax
  1037d0:	e9 b1 02 00 00       	jmp    103a86 <ipc_channel_receive+0x2c7>
  1037d5:	ff 75 0c             	push   0xc(%ebp)
  1037d8:	e8 73 f3 ff ff       	call   102b50 <find_channel>
  1037dd:	83 c4 04             	add    $0x4,%esp
  1037e0:	89 45 e8             	mov    %eax,-0x18(%ebp)
  1037e3:	83 7d e8 00          	cmpl   $0x0,-0x18(%ebp)
  1037e7:	75 0a                	jne    1037f3 <ipc_channel_receive+0x34>
  1037e9:	b8 ff ff ff ff       	mov    $0xffffffff,%eax
  1037ee:	e9 93 02 00 00       	jmp    103a86 <ipc_channel_receive+0x2c7>
  1037f3:	ff 75 0c             	push   0xc(%ebp)
  1037f6:	ff 75 08             	push   0x8(%ebp)
  1037f9:	e8 b8 f3 ff ff       	call   102bb6 <process_has_channel>
  1037fe:	83 c4 08             	add    $0x8,%esp
  103801:	85 c0                	test   %eax,%eax
  103803:	74 02                	je     103807 <ipc_channel_receive+0x48>
  103805:	eb 17                	jmp    10381e <ipc_channel_receive+0x5f>
  103807:	8b 45 e8             	mov    -0x18(%ebp),%eax
  10380a:	8b 40 08             	mov    0x8(%eax),%eax
  10380d:	83 e0 01             	and    $0x1,%eax
  103810:	85 c0                	test   %eax,%eax
  103812:	75 0a                	jne    10381e <ipc_channel_receive+0x5f>
  103814:	b8 ff ff ff ff       	mov    $0xffffffff,%eax
  103819:	e9 68 02 00 00       	jmp    103a86 <ipc_channel_receive+0x2c7>
  10381e:	8b 45 e8             	mov    -0x18(%ebp),%eax
  103821:	8d 90 f8 22 00 00    	lea    0x22f8(%eax),%edx
  103827:	83 ec 08             	sub    $0x8,%esp
  10382a:	8d 45 d8             	lea    -0x28(%ebp),%eax
  10382d:	50                   	push   %eax
  10382e:	52                   	push   %edx
  10382f:	e8 41 7e 01 00       	call   11b675 <spinlock_lock_irqsave>
  103834:	83 c4 10             	add    $0x10,%esp
  103837:	8b 45 e8             	mov    -0x18(%ebp),%eax
  10383a:	0f b6 80 ae 22 00 00 	movzbl 0x22ae(%eax),%eax
  103841:	84 c0                	test   %al,%al
  103843:	0f 84 47 01 00 00    	je     103990 <ipc_channel_receive+0x1d1>
  103849:	8b 45 e8             	mov    -0x18(%ebp),%eax
  10384c:	0f b6 80 ac 22 00 00 	movzbl 0x22ac(%eax),%eax
  103853:	0f b6 c0             	movzbl %al,%eax
  103856:	69 c0 14 01 00 00    	imul   $0x114,%eax,%eax
  10385c:	8d 50 20             	lea    0x20(%eax),%edx
  10385f:	8b 45 e8             	mov    -0x18(%ebp),%eax
  103862:	01 d0                	add    %edx,%eax
  103864:	83 c0 0c             	add    $0xc,%eax
  103867:	89 45 e4             	mov    %eax,-0x1c(%ebp)
  10386a:	8b 45 e8             	mov    -0x18(%ebp),%eax
  10386d:	0f b6 80 ac 22 00 00 	movzbl 0x22ac(%eax),%eax
  103874:	0f b6 c0             	movzbl %al,%eax
  103877:	8d 50 01             	lea    0x1(%eax),%edx
  10387a:	89 d0                	mov    %edx,%eax
  10387c:	c1 f8 1f             	sar    $0x1f,%eax
  10387f:	c1 e8 1b             	shr    $0x1b,%eax
  103882:	01 c2                	add    %eax,%edx
  103884:	83 e2 1f             	and    $0x1f,%edx
  103887:	29 c2                	sub    %eax,%edx
  103889:	89 d0                	mov    %edx,%eax
  10388b:	89 c2                	mov    %eax,%edx
  10388d:	8b 45 e8             	mov    -0x18(%ebp),%eax
  103890:	88 90 ac 22 00 00    	mov    %dl,0x22ac(%eax)
  103896:	8b 45 e8             	mov    -0x18(%ebp),%eax
  103899:	0f b6 80 ae 22 00 00 	movzbl 0x22ae(%eax),%eax
  1038a0:	8d 50 ff             	lea    -0x1(%eax),%edx
  1038a3:	8b 45 e8             	mov    -0x18(%ebp),%eax
  1038a6:	88 90 ae 22 00 00    	mov    %dl,0x22ae(%eax)
  1038ac:	83 7d 10 00          	cmpl   $0x0,0x10(%ebp)
  1038b0:	74 37                	je     1038e9 <ipc_channel_receive+0x12a>
  1038b2:	8b 45 e4             	mov    -0x1c(%ebp),%eax
  1038b5:	8b 10                	mov    (%eax),%edx
  1038b7:	8b 45 10             	mov    0x10(%ebp),%eax
  1038ba:	89 10                	mov    %edx,(%eax)
  1038bc:	8b 45 e4             	mov    -0x1c(%ebp),%eax
  1038bf:	8b 50 04             	mov    0x4(%eax),%edx
  1038c2:	8b 45 10             	mov    0x10(%ebp),%eax
  1038c5:	89 50 08             	mov    %edx,0x8(%eax)
  1038c8:	8b 45 e4             	mov    -0x1c(%ebp),%eax
  1038cb:	8b 50 10             	mov    0x10(%eax),%edx
  1038ce:	8b 45 10             	mov    0x10(%ebp),%eax
  1038d1:	89 50 04             	mov    %edx,0x4(%eax)
  1038d4:	8b 45 e4             	mov    -0x1c(%ebp),%eax
  1038d7:	8b 50 08             	mov    0x8(%eax),%edx
  1038da:	8b 45 10             	mov    0x10(%ebp),%eax
  1038dd:	89 50 0c             	mov    %edx,0xc(%eax)
  1038e0:	8b 45 10             	mov    0x10(%ebp),%eax
  1038e3:	8b 55 14             	mov    0x14(%ebp),%edx
  1038e6:	89 50 10             	mov    %edx,0x10(%eax)
  1038e9:	8b 45 e4             	mov    -0x1c(%ebp),%eax
  1038ec:	8b 40 08             	mov    0x8(%eax),%eax
  1038ef:	83 ec 08             	sub    $0x8,%esp
  1038f2:	ff 75 18             	push   0x18(%ebp)
  1038f5:	50                   	push   %eax
  1038f6:	e8 d7 f1 ff ff       	call   102ad2 <local_min>
  1038fb:	83 c4 10             	add    $0x10,%esp
  1038fe:	89 45 e0             	mov    %eax,-0x20(%ebp)
  103901:	8b 45 e4             	mov    -0x1c(%ebp),%eax
  103904:	8b 40 08             	mov    0x8(%eax),%eax
  103907:	39 45 18             	cmp    %eax,0x18(%ebp)
  10390a:	73 15                	jae    103921 <ipc_channel_receive+0x162>
  10390c:	83 7d 10 00          	cmpl   $0x0,0x10(%ebp)
  103910:	74 0f                	je     103921 <ipc_channel_receive+0x162>
  103912:	8b 45 10             	mov    0x10(%ebp),%eax
  103915:	8b 00                	mov    (%eax),%eax
  103917:	83 c8 01             	or     $0x1,%eax
  10391a:	89 c2                	mov    %eax,%edx
  10391c:	8b 45 10             	mov    0x10(%ebp),%eax
  10391f:	89 10                	mov    %edx,(%eax)
  103921:	83 7d 14 00          	cmpl   $0x0,0x14(%ebp)
  103925:	74 39                	je     103960 <ipc_channel_receive+0x1a1>
  103927:	83 7d e0 00          	cmpl   $0x0,-0x20(%ebp)
  10392b:	74 33                	je     103960 <ipc_channel_receive+0x1a1>
  10392d:	8b 45 14             	mov    0x14(%ebp),%eax
  103930:	89 45 dc             	mov    %eax,-0x24(%ebp)
  103933:	c7 45 f4 00 00 00 00 	movl   $0x0,-0xc(%ebp)
  10393a:	eb 1c                	jmp    103958 <ipc_channel_receive+0x199>
  10393c:	8b 55 dc             	mov    -0x24(%ebp),%edx
  10393f:	8b 45 f4             	mov    -0xc(%ebp),%eax
  103942:	01 c2                	add    %eax,%edx
  103944:	8b 4d e4             	mov    -0x1c(%ebp),%ecx
  103947:	8b 45 f4             	mov    -0xc(%ebp),%eax
  10394a:	01 c8                	add    %ecx,%eax
  10394c:	83 c0 14             	add    $0x14,%eax
  10394f:	0f b6 00             	movzbl (%eax),%eax
  103952:	88 02                	mov    %al,(%edx)
  103954:	83 45 f4 01          	addl   $0x1,-0xc(%ebp)
  103958:	8b 45 f4             	mov    -0xc(%ebp),%eax
  10395b:	3b 45 e0             	cmp    -0x20(%ebp),%eax
  10395e:	72 dc                	jb     10393c <ipc_channel_receive+0x17d>
  103960:	8b 45 d8             	mov    -0x28(%ebp),%eax
  103963:	8b 55 e8             	mov    -0x18(%ebp),%edx
  103966:	81 c2 f8 22 00 00    	add    $0x22f8,%edx
  10396c:	83 ec 08             	sub    $0x8,%esp
  10396f:	50                   	push   %eax
  103970:	52                   	push   %edx
  103971:	e8 2f 7d 01 00       	call   11b6a5 <spinlock_unlock_irqrestore>
  103976:	83 c4 10             	add    $0x10,%esp
  103979:	8b 45 08             	mov    0x8(%ebp),%eax
  10397c:	c7 80 34 10 00 00 ff 	movl   $0xffffffff,0x1034(%eax)
  103983:	ff ff ff 
  103986:	b8 01 00 00 00       	mov    $0x1,%eax
  10398b:	e9 f6 00 00 00       	jmp    103a86 <ipc_channel_receive+0x2c7>
  103990:	8b 45 1c             	mov    0x1c(%ebp),%eax
  103993:	83 e0 01             	and    $0x1,%eax
  103996:	85 c0                	test   %eax,%eax
  103998:	74 23                	je     1039bd <ipc_channel_receive+0x1fe>
  10399a:	8b 45 d8             	mov    -0x28(%ebp),%eax
  10399d:	8b 55 e8             	mov    -0x18(%ebp),%edx
  1039a0:	81 c2 f8 22 00 00    	add    $0x22f8,%edx
  1039a6:	83 ec 08             	sub    $0x8,%esp
  1039a9:	50                   	push   %eax
  1039aa:	52                   	push   %edx
  1039ab:	e8 f5 7c 01 00       	call   11b6a5 <spinlock_unlock_irqrestore>
  1039b0:	83 c4 10             	add    $0x10,%esp
  1039b3:	b8 00 00 00 00       	mov    $0x0,%eax
  1039b8:	e9 c9 00 00 00       	jmp    103a86 <ipc_channel_receive+0x2c7>
  1039bd:	c7 45 f0 00 00 00 00 	movl   $0x0,-0x10(%ebp)
  1039c4:	c6 45 ef 00          	movb   $0x0,-0x11(%ebp)
  1039c8:	eb 22                	jmp    1039ec <ipc_channel_receive+0x22d>
  1039ca:	0f b6 55 ef          	movzbl -0x11(%ebp),%edx
  1039ce:	8b 45 e8             	mov    -0x18(%ebp),%eax
  1039d1:	81 c2 ac 08 00 00    	add    $0x8ac,%edx
  1039d7:	8b 04 90             	mov    (%eax,%edx,4),%eax
  1039da:	39 45 08             	cmp    %eax,0x8(%ebp)
  1039dd:	75 09                	jne    1039e8 <ipc_channel_receive+0x229>
  1039df:	c7 45 f0 01 00 00 00 	movl   $0x1,-0x10(%ebp)
  1039e6:	eb 13                	jmp    1039fb <ipc_channel_receive+0x23c>
  1039e8:	80 45 ef 01          	addb   $0x1,-0x11(%ebp)
  1039ec:	8b 45 e8             	mov    -0x18(%ebp),%eax
  1039ef:	0f b6 80 d0 22 00 00 	movzbl 0x22d0(%eax),%eax
  1039f6:	38 45 ef             	cmp    %al,-0x11(%ebp)
  1039f9:	72 cf                	jb     1039ca <ipc_channel_receive+0x20b>
  1039fb:	83 7d f0 00          	cmpl   $0x0,-0x10(%ebp)
  1039ff:	75 62                	jne    103a63 <ipc_channel_receive+0x2a4>
  103a01:	8b 45 e8             	mov    -0x18(%ebp),%eax
  103a04:	0f b6 80 d0 22 00 00 	movzbl 0x22d0(%eax),%eax
  103a0b:	3c 07                	cmp    $0x7,%al
  103a0d:	76 20                	jbe    103a2f <ipc_channel_receive+0x270>
  103a0f:	8b 45 d8             	mov    -0x28(%ebp),%eax
  103a12:	8b 55 e8             	mov    -0x18(%ebp),%edx
  103a15:	81 c2 f8 22 00 00    	add    $0x22f8,%edx
  103a1b:	83 ec 08             	sub    $0x8,%esp
  103a1e:	50                   	push   %eax
  103a1f:	52                   	push   %edx
  103a20:	e8 80 7c 01 00       	call   11b6a5 <spinlock_unlock_irqrestore>
  103a25:	83 c4 10             	add    $0x10,%esp
  103a28:	b8 ff ff ff ff       	mov    $0xffffffff,%eax
  103a2d:	eb 57                	jmp    103a86 <ipc_channel_receive+0x2c7>
  103a2f:	8b 45 e8             	mov    -0x18(%ebp),%eax
  103a32:	0f b6 80 d0 22 00 00 	movzbl 0x22d0(%eax),%eax
  103a39:	8d 50 01             	lea    0x1(%eax),%edx
  103a3c:	8b 4d e8             	mov    -0x18(%ebp),%ecx
  103a3f:	88 91 d0 22 00 00    	mov    %dl,0x22d0(%ecx)
  103a45:	0f b6 d0             	movzbl %al,%edx
  103a48:	8b 45 e8             	mov    -0x18(%ebp),%eax
  103a4b:	8d 8a ac 08 00 00    	lea    0x8ac(%edx),%ecx
  103a51:	8b 55 08             	mov    0x8(%ebp),%edx
  103a54:	89 14 88             	mov    %edx,(%eax,%ecx,4)
  103a57:	8b 45 08             	mov    0x8(%ebp),%eax
  103a5a:	8b 55 0c             	mov    0xc(%ebp),%edx
  103a5d:	89 90 34 10 00 00    	mov    %edx,0x1034(%eax)
  103a63:	8b 45 d8             	mov    -0x28(%ebp),%eax
  103a66:	8b 55 e8             	mov    -0x18(%ebp),%edx
  103a69:	81 c2 f8 22 00 00    	add    $0x22f8,%edx
  103a6f:	83 ec 08             	sub    $0x8,%esp
  103a72:	50                   	push   %eax
  103a73:	52                   	push   %edx
  103a74:	e8 2c 7c 01 00       	call   11b6a5 <spinlock_unlock_irqrestore>
  103a79:	83 c4 10             	add    $0x10,%esp
  103a7c:	e8 74 18 00 00       	call   1052f5 <process_block_current>
  103a81:	e9 98 fd ff ff       	jmp    10381e <ipc_channel_receive+0x5f>
  103a86:	c9                   	leave
  103a87:	c3                   	ret

00103a88 <ipc_channel_peek>:
  103a88:	55                   	push   %ebp
  103a89:	89 e5                	mov    %esp,%ebp
  103a8b:	83 ec 18             	sub    $0x18,%esp
  103a8e:	ff 75 08             	push   0x8(%ebp)
  103a91:	e8 ba f0 ff ff       	call   102b50 <find_channel>
  103a96:	83 c4 04             	add    $0x4,%esp
  103a99:	89 45 f4             	mov    %eax,-0xc(%ebp)
  103a9c:	83 7d f4 00          	cmpl   $0x0,-0xc(%ebp)
  103aa0:	75 07                	jne    103aa9 <ipc_channel_peek+0x21>
  103aa2:	b8 ff ff ff ff       	mov    $0xffffffff,%eax
  103aa7:	eb 4a                	jmp    103af3 <ipc_channel_peek+0x6b>
  103aa9:	8b 45 f4             	mov    -0xc(%ebp),%eax
  103aac:	8d 90 f8 22 00 00    	lea    0x22f8(%eax),%edx
  103ab2:	83 ec 08             	sub    $0x8,%esp
  103ab5:	8d 45 ec             	lea    -0x14(%ebp),%eax
  103ab8:	50                   	push   %eax
  103ab9:	52                   	push   %edx
  103aba:	e8 b6 7b 01 00       	call   11b675 <spinlock_lock_irqsave>
  103abf:	83 c4 10             	add    $0x10,%esp
  103ac2:	8b 45 f4             	mov    -0xc(%ebp),%eax
  103ac5:	0f b6 80 ae 22 00 00 	movzbl 0x22ae(%eax),%eax
  103acc:	84 c0                	test   %al,%al
  103ace:	0f 95 c0             	setne  %al
  103ad1:	0f b6 c0             	movzbl %al,%eax
  103ad4:	89 45 f0             	mov    %eax,-0x10(%ebp)
  103ad7:	8b 45 ec             	mov    -0x14(%ebp),%eax
  103ada:	8b 55 f4             	mov    -0xc(%ebp),%edx
  103add:	81 c2 f8 22 00 00    	add    $0x22f8,%edx
  103ae3:	83 ec 08             	sub    $0x8,%esp
  103ae6:	50                   	push   %eax
  103ae7:	52                   	push   %edx
  103ae8:	e8 b8 7b 01 00       	call   11b6a5 <spinlock_unlock_irqrestore>
  103aed:	83 c4 10             	add    $0x10,%esp
  103af0:	8b 45 f0             	mov    -0x10(%ebp),%eax
  103af3:	c9                   	leave
  103af4:	c3                   	ret

00103af5 <ipc_get_service_channel>:
  103af5:	55                   	push   %ebp
  103af6:	89 e5                	mov    %esp,%ebp
  103af8:	83 7d 08 03          	cmpl   $0x3,0x8(%ebp)
  103afc:	76 07                	jbe    103b05 <ipc_get_service_channel+0x10>
  103afe:	b8 ff ff ff ff       	mov    $0xffffffff,%eax
  103b03:	eb 0a                	jmp    103b0f <ipc_get_service_channel+0x1a>
  103b05:	8b 45 08             	mov    0x8(%ebp),%eax
  103b08:	8b 04 85 c0 71 17 00 	mov    0x1771c0(,%eax,4),%eax
  103b0f:	5d                   	pop    %ebp
  103b10:	c3                   	ret

00103b11 <ipc_is_initialized>:
  103b11:	55                   	push   %ebp
  103b12:	89 e5                	mov    %esp,%ebp
  103b14:	a1 20 12 13 00       	mov    0x131220,%eax
  103b19:	5d                   	pop    %ebp
  103b1a:	c3                   	ret

00103b1b <ipc_process_cleanup>:
  103b1b:	55                   	push   %ebp
  103b1c:	89 e5                	mov    %esp,%ebp
